	.text
	.file	"spectre_v1_pht_sa.cc"
	.file	1 "/usr/lib/gcc/x86_64-linux-gnu/9/../../../../include/x86_64-linux-gnu/c++/9/bits/atomic_word.h"
	.file	2 "/usr/lib/gcc/x86_64-linux-gnu/9/../../../../include/c++/9/bits/ios_base.h"
	.file	3 "/usr/lib/gcc/x86_64-linux-gnu/9/../../../../include/c++/9/iostream"
	.file	4 "/usr/local/google/home/zbrid/sanitizer/safeside/demos/spectre_v1/./local_content.h"
	.file	5 "/usr/lib/gcc/x86_64-linux-gnu/9/../../../../include/c++/9/ext/concurrence.h"
	.file	6 "/usr/lib/gcc/x86_64-linux-gnu/9/../../../../include/c++/9/bits/unique_ptr.h"
	.file	7 "/usr/lib/gcc/x86_64-linux-gnu/9/../../../../include/c++/9/tuple"
	.file	8 "/usr/lib/gcc/x86_64-linux-gnu/9/../../../../include/c++/9/bits/uses_allocator.h"
	.file	9 "/usr/lib/gcc/x86_64-linux-gnu/9/../../../../include/c++/9/type_traits"
	.file	10 "/usr/lib/gcc/x86_64-linux-gnu/9/../../../../include/x86_64-linux-gnu/c++/9/bits/c++config.h"
	.file	11 "/usr/lib/gcc/x86_64-linux-gnu/9/../../../../include/c++/9/bits/postypes.h"
	.file	12 "/usr/local/google/home/zbrid/sanitizer/llvm-install/llvm-7.0.1/build/lib/clang/7.0.1/include/stddef.h"
	.file	13 "/usr/local/google/home/zbrid/sanitizer/safeside/demos/spectre_v1/./timing_array.h"
	.file	14 "/usr/include/x86_64-linux-gnu/bits/types.h"
	.file	15 "/usr/include/x86_64-linux-gnu/bits/stdint-uintn.h"
	.file	16 "/usr/lib/gcc/x86_64-linux-gnu/9/../../../../include/c++/9/bits/alloc_traits.h"
	.file	17 "/usr/lib/gcc/x86_64-linux-gnu/9/../../../../include/c++/9/array"
	.file	18 "/usr/lib/gcc/x86_64-linux-gnu/9/../../../../include/c++/9/ext/new_allocator.h"
	.file	19 "/usr/lib/gcc/x86_64-linux-gnu/9/../../../../include/x86_64-linux-gnu/c++/9/bits/c++allocator.h"
	.file	20 "/usr/lib/gcc/x86_64-linux-gnu/9/../../../../include/c++/9/bits/allocator.h"
	.file	21 "/usr/lib/gcc/x86_64-linux-gnu/9/../../../../include/c++/9/ext/alloc_traits.h"
	.file	22 "/usr/lib/gcc/x86_64-linux-gnu/9/../../../../include/c++/9/bits/stl_vector.h"
	.file	23 "/usr/lib/gcc/x86_64-linux-gnu/9/../../../../include/c++/9/bits/exception_ptr.h"
	.file	24 "/usr/lib/gcc/x86_64-linux-gnu/9/../../../../include/c++/9/debug/debug.h"
	.file	25 "/usr/include/x86_64-linux-gnu/bits/types/__mbstate_t.h"
	.file	26 "/usr/include/x86_64-linux-gnu/bits/types/mbstate_t.h"
	.file	27 "/usr/lib/gcc/x86_64-linux-gnu/9/../../../../include/c++/9/cwchar"
	.file	28 "/usr/include/x86_64-linux-gnu/bits/types/wint_t.h"
	.file	29 "/usr/include/wchar.h"
	.file	30 "/usr/include/x86_64-linux-gnu/bits/types/struct_FILE.h"
	.file	31 "/usr/include/x86_64-linux-gnu/bits/types/__FILE.h"
	.file	32 "/usr/include/x86_64-linux-gnu/bits/stdint-intn.h"
	.file	33 "/usr/lib/gcc/x86_64-linux-gnu/9/../../../../include/c++/9/cstdint"
	.file	34 "/usr/include/stdint.h"
	.file	35 "/usr/lib/gcc/x86_64-linux-gnu/9/../../../../include/c++/9/clocale"
	.file	36 "/usr/include/locale.h"
	.file	37 "/usr/include/ctype.h"
	.file	38 "/usr/lib/gcc/x86_64-linux-gnu/9/../../../../include/c++/9/cctype"
	.file	39 "/usr/include/stdlib.h"
	.file	40 "/usr/lib/gcc/x86_64-linux-gnu/9/../../../../include/c++/9/bits/std_abs.h"
	.file	41 "/usr/lib/gcc/x86_64-linux-gnu/9/../../../../include/c++/9/cstdlib"
	.file	42 "/usr/include/x86_64-linux-gnu/bits/stdlib-float.h"
	.file	43 "/usr/include/x86_64-linux-gnu/bits/stdlib-bsearch.h"
	.file	44 "/usr/include/x86_64-linux-gnu/bits/types/FILE.h"
	.file	45 "/usr/lib/gcc/x86_64-linux-gnu/9/../../../../include/c++/9/cstdio"
	.file	46 "/usr/include/x86_64-linux-gnu/bits/types/__fpos_t.h"
	.file	47 "/usr/include/stdio.h"
	.file	48 "/usr/include/x86_64-linux-gnu/bits/stdio.h"
	.file	49 "/usr/include/string.h"
	.file	50 "/usr/lib/gcc/x86_64-linux-gnu/9/../../../../include/c++/9/cstring"
	.file	51 "/usr/include/wctype.h"
	.file	52 "/usr/lib/gcc/x86_64-linux-gnu/9/../../../../include/c++/9/cwctype"
	.file	53 "/usr/include/x86_64-linux-gnu/bits/wctype-wchar.h"
	.file	54 "/usr/lib/gcc/x86_64-linux-gnu/9/../../../../include/c++/9/bits/shared_ptr_base.h"
	.file	55 "/usr/lib/gcc/x86_64-linux-gnu/9/../../../../include/c++/9/stdlib.h"
	.file	56 "/usr/local/google/home/zbrid/sanitizer/llvm-install/llvm-7.0.1/build/lib/clang/7.0.1/include/__stddef_max_align_t.h"
	.file	57 "/usr/lib/gcc/x86_64-linux-gnu/9/../../../../include/c++/9/cstddef"
	.globl	main                    # -- Begin function main
	.p2align	4, 0x90
	.type	main,@function
main:                                   # @main
.Lfunc_begin0:
	.file	58 "/usr/local/google/home/zbrid/sanitizer/safeside/demos/spectre_v1/spectre_v1_pht_sa.cc"
	.loc	58 85 0                 # spectre_v1_pht_sa.cc:85:0
	.cfi_startproc
	.cfi_personality 3, __gxx_personality_v0
	.cfi_lsda 3, .Lexception0
# %bb.0:                                # %entry
	callq	specfuzz_init
	nopl	42(%rbx)
	subq	$11, instruction_counter
	movq	%rsp, current_rsp
	movq	%r15, tmp_gpr1
	leaq	-8(%rsp), %r15
	movq	checkpoint_sp, %rsp
	pushq	%r15
	pushq	(%r15)
	movq	%rsp, checkpoint_sp
	movq	tmp_gpr1, %r15
	movq	current_rsp, %rsp
	pushq	%rbp
	.cfi_def_cfa_offset 16
	.cfi_offset %rbp, -16
	movq	%rsp, %rbp
	.cfi_def_cfa_register %rbp
.Ltmp22:
	.loc	58 85 0 prologue_end    # spectre_v1_pht_sa.cc:85:0
	movq	%rsp, current_rsp
	movq	%r15, tmp_gpr1
	leaq	-8(%rsp), %r15
	movq	checkpoint_sp, %rsp
	pushq	%r15
	pushq	(%r15)
	movq	%rsp, checkpoint_sp
	movq	tmp_gpr1, %r15
	movq	current_rsp, %rsp
	pushq	%r15
	movq	%rsp, current_rsp
	movq	%r15, tmp_gpr1
	leaq	-8(%rsp), %r15
	movq	checkpoint_sp, %rsp
	pushq	%r15
	pushq	(%r15)
	movq	%rsp, checkpoint_sp
	movq	tmp_gpr1, %r15
	movq	current_rsp, %rsp
	pushq	%r14
	movq	%rsp, current_rsp
	movq	%r15, tmp_gpr1
	leaq	-8(%rsp), %r15
	movq	checkpoint_sp, %rsp
	pushq	%r15
	pushq	(%r15)
	movq	%rsp, checkpoint_sp
	movq	tmp_gpr1, %r15
	movq	current_rsp, %rsp
	pushq	%r13
	movq	%rsp, current_rsp
	movq	%r15, tmp_gpr1
	leaq	-8(%rsp), %r15
	movq	checkpoint_sp, %rsp
	pushq	%r15
	pushq	(%r15)
	movq	%rsp, checkpoint_sp
	movq	tmp_gpr1, %r15
	movq	current_rsp, %rsp
	pushq	%r12
	movq	%rsp, current_rsp
	movq	%r15, tmp_gpr1
	leaq	-8(%rsp), %r15
	movq	checkpoint_sp, %rsp
	pushq	%r15
	pushq	(%r15)
	movq	%rsp, checkpoint_sp
	movq	tmp_gpr1, %r15
	movq	current_rsp, %rsp
	pushq	%rbx
	andq	$-32, %rsp
	subq	$160, %rsp
	movq	%rsp, %rbx
	.cfi_offset %rbx, -56
	.cfi_offset %r12, -48
	.cfi_offset %r13, -40
	.cfi_offset %r14, -32
	.cfi_offset %r15, -24
	cmpl	$0, __asan_option_detect_stack_use_after_return(%rip)
	movq	%rsp, current_rsp
	leaq	specfuzz_rtl_frame, %rsp
	callq	specfuzz_chkp
	movq	current_rsp, %rsp
	jmp	.LBB0_48
	jne	.LBB0_1
	jmp	.LBB0_2
.LBB0_48:                               # %entry
	.loc	58 0 0 is_stmt 0        # spectre_v1_pht_sa.cc:0:0
	je	.LBB0_1
.LBB0_2:
	.loc	58 85 0                 # spectre_v1_pht_sa.cc:85:0
	subq	$5, instruction_counter
	movl	$128, %edi
	movq	%rsp, current_rsp
	leaq	specfuzz_rtl_frame, %rsp
	callq	specfuzz_rlbk_external_call
	movq	current_rsp, %rsp
	addw	$1, disable_speculation
	callq	__asan_stack_malloc_1
	subw	$1, disable_speculation
	movq	%rax, %rcx
	movq	%rsp, current_rsp
	movq	%r15, tmp_gpr1
	leaq	48(%rbx), %r15
	movq	checkpoint_sp, %rsp
	pushq	%r15
	pushq	(%r15)
	movq	%rsp, checkpoint_sp
	movq	tmp_gpr1, %r15
	movq	current_rsp, %rsp
	movq	%rax, 48(%rbx)          # 8-byte Spill
	testq	%rax, %rax
	movq	%rsp, current_rsp
	leaq	specfuzz_rtl_frame, %rsp
	callq	specfuzz_chkp
	movq	current_rsp, %rsp
	jmp	.LBB0_49
	je	.LBB0_5
	jmp	.LBB0_4
.LBB0_49:
	.loc	58 0 0                  # spectre_v1_pht_sa.cc:0:0
	jne	.LBB0_5
.LBB0_4:
	.loc	58 85 0                 # spectre_v1_pht_sa.cc:85:0
	subq	$4, instruction_counter
	movq	%rsp, %rcx
	addq	$-128, %rcx
	andq	$-32, %rcx
	movq	%rcx, %rsp
.LBB0_5:
	subq	$11, instruction_counter
	movq	%rsp, current_rsp
	movq	%r15, tmp_gpr1
	leaq	120(%rbx), %r15
	movq	checkpoint_sp, %rsp
	pushq	%r15
	pushq	(%r15)
	movq	%rsp, checkpoint_sp
	movq	tmp_gpr1, %r15
	movq	current_rsp, %rsp
	movq	%rcx, 120(%rbx)
	movq	%rsp, current_rsp
	movq	%r15, tmp_gpr1
	leaq	(%rcx), %r15
	movq	checkpoint_sp, %rsp
	pushq	%r15
	pushq	(%r15)
	movq	%rsp, checkpoint_sp
	movq	tmp_gpr1, %r15
	movq	current_rsp, %rsp
	movq	$1102416563, (%rcx)     # imm = 0x41B58AB3
	movq	%rsp, current_rsp
	movq	%r15, tmp_gpr1
	leaq	8(%rcx), %r15
	movq	checkpoint_sp, %rsp
	pushq	%r15
	pushq	(%r15)
	movq	%rsp, checkpoint_sp
	movq	tmp_gpr1, %r15
	movq	current_rsp, %rsp
	movq	$.L___asan_gen_, 8(%rcx)
	movq	%rsp, current_rsp
	movq	%r15, tmp_gpr1
	leaq	16(%rcx), %r15
	movq	checkpoint_sp, %rsp
	pushq	%r15
	pushq	(%r15)
	movq	%rsp, checkpoint_sp
	movq	tmp_gpr1, %r15
	movq	current_rsp, %rsp
	movq	$main, 16(%rcx)
	movq	%rsp, current_rsp
	movq	%r15, tmp_gpr1
	leaq	16(%rbx), %r15
	movq	checkpoint_sp, %rsp
	pushq	%r15
	pushq	(%r15)
	movq	%rsp, checkpoint_sp
	movq	tmp_gpr1, %r15
	movq	current_rsp, %rsp
	movq	%rcx, 16(%rbx)          # 8-byte Spill
	movq	%rcx, %r15
	shrq	$3, %r15
	movabsq	$-506387807054204431, %rax # imm = 0xF8F8F2F8F1F1F1F1
	movq	%rsp, current_rsp
	movq	%r15, tmp_gpr1
	leaq	2147450880(%r15), %r15
	movq	checkpoint_sp, %rsp
	pushq	%r15
	pushq	(%r15)
	movq	%rsp, checkpoint_sp
	movq	tmp_gpr1, %r15
	movq	current_rsp, %rsp
	movq	%rax, 2147450880(%r15)
	movabsq	$-868082074056918792, %rax # imm = 0xF3F3F3F3F3F3F8F8
	movq	%rsp, current_rsp
	movq	%r15, tmp_gpr1
	leaq	2147450888(%r15), %r15
	movq	checkpoint_sp, %rsp
	pushq	%r15
	pushq	(%r15)
	movq	%rsp, checkpoint_sp
	movq	tmp_gpr1, %r15
	movq	current_rsp, %rsp
	movq	%rax, 2147450888(%r15)
.Ltmp23:
	.file	59 "/usr/lib/gcc/x86_64-linux-gnu/9/../../../../include/c++/9/ostream"
	.loc	59 570 2 is_stmt 1      # /usr/lib/gcc/x86_64-linux-gnu/9/../../../../include/c++/9/ostream:570:2
	movq	%rsp, current_rsp
	leaq	specfuzz_rtl_frame, %rsp
	callq	specfuzz_rlbk_if_done
	movq	current_rsp, %rsp
	subq	$15, instruction_counter
	movl	$_ZSt4cout, %edi
	movl	$.str.2, %esi
.Ltmp24:
	#DEBUG_VALUE: operator<<<std::char_traits<char> >:__s <- $rsi
	movl	$20, %edx
	movq	%rsp, current_rsp
	leaq	specfuzz_rtl_frame, %rsp
	callq	specfuzz_rlbk_external_call
	movq	current_rsp, %rsp
	addw	$1, disable_speculation
	callq	_ZSt16__ostream_insertIcSt11char_traitsIcEERSt13basic_ostreamIT_T0_ES6_PKS3_l
.Ltmp25:
	subw	$1, disable_speculation
.Ltmp26:
	.loc	58 87 13                # spectre_v1_pht_sa.cc:87:13
	movl	$_ZSt4cout, %edi
.Ltmp27:
	#DEBUG_VALUE: operator<<<std::char_traits<char> >:__out <- $rdi
	movq	%rsp, current_rsp
	leaq	specfuzz_rtl_frame, %rsp
	callq	specfuzz_rlbk_external_call
	movq	current_rsp, %rsp
	addw	$1, disable_speculation
	callq	_ZNSo5flushEv
.Ltmp28:
	subw	$1, disable_speculation
	.loc	58 88 33                # spectre_v1_pht_sa.cc:88:33
	movq	private_data(%rip), %r14
	.loc	58 88 46 is_stmt 0      # spectre_v1_pht_sa.cc:88:46
	movq	%r14, %rax
	subq	public_data(%rip), %rax
.Ltmp29:
	#DEBUG_VALUE: main:private_offset <- $rax
	.loc	58 0 46                 # spectre_v1_pht_sa.cc:0:46
	movq	%rsp, current_rsp
	movq	%r15, tmp_gpr1
	leaq	88(%rbx), %r15
	movq	checkpoint_sp, %rsp
	pushq	%r15
	pushq	(%r15)
	movq	%rsp, checkpoint_sp
	movq	tmp_gpr1, %r15
	movq	current_rsp, %rsp
	movq	%rax, 88(%rbx)          # 8-byte Spill
.Ltmp30:
	#DEBUG_VALUE: main:private_offset <- [DW_OP_plus_uconst 88] [$rbx+0]
	#DEBUG_VALUE: i <- 0
	.loc	58 89 26 is_stmt 1      # spectre_v1_pht_sa.cc:89:26
	movq	%r14, %rdi
	movq	%rsp, current_rsp
	leaq	asan_rtl_frame, %rsp
	callq	__asan_load1
	movq	current_rsp, %rsp
	.loc	58 89 24 is_stmt 0      # spectre_v1_pht_sa.cc:89:24
	cmpb	$0, (%r14)
	movq	%r15, %r14
.Ltmp31:
	.loc	58 89 3                 # spectre_v1_pht_sa.cc:89:3
	movq	%rsp, current_rsp
	leaq	specfuzz_rtl_frame, %rsp
	callq	specfuzz_chkp
	movq	current_rsp, %rsp
	jmp	.LBB0_50
	jne	.LBB0_21
	jmp	.LBB0_6
.LBB0_50:
	je	.LBB0_21
.LBB0_6:                                # %for.body.lr.ph
	#DEBUG_VALUE: main:private_offset <- [DW_OP_plus_uconst 88] [$rbx+0]
	.loc	58 0 3                  # spectre_v1_pht_sa.cc:0:3
	subq	$10, instruction_counter
	movq	16(%rbx), %rax          # 8-byte Reload
	leaq	32(%rax), %rcx
.Ltmp32:
	#DEBUG_VALUE: operator<<<std::char_traits<char> >:__c <- [DW_OP_plus_uconst 80, DW_OP_deref] [$rbx+0]
	movq	%rsp, current_rsp
	movq	%r15, tmp_gpr1
	leaq	80(%rbx), %r15
	movq	checkpoint_sp, %rsp
	pushq	%r15
	pushq	(%r15)
	movq	%rsp, checkpoint_sp
	movq	tmp_gpr1, %r15
	movq	current_rsp, %rsp
	movq	%rcx, 80(%rbx)          # 8-byte Spill
	leaq	48(%rax), %rax
.Ltmp33:
	#DEBUG_VALUE: operator[]:this <- $rax
	#DEBUG_VALUE: operator[]:this <- [DW_OP_plus_uconst 8, DW_OP_stack_value] $rax
	#DEBUG_VALUE: ~TimingArray:this <- $rax
	#DEBUG_VALUE: ~vector:this <- [DW_OP_plus_uconst 8, DW_OP_stack_value] $rax
	#DEBUG_VALUE: ~_Vector_base:this <- [DW_OP_plus_uconst 8, DW_OP_stack_value] $rax
	#DEBUG_VALUE: _M_deallocate:this <- [DW_OP_plus_uconst 8, DW_OP_stack_value] $rax
	#DEBUG_VALUE: deallocate:__a <- [DW_OP_plus_uconst 8, DW_OP_stack_value] $rax
	#DEBUG_VALUE: deallocate:this <- [DW_OP_plus_uconst 8, DW_OP_stack_value] $rax
	#DEBUG_VALUE: LeakByte:timing_array <- [DW_OP_deref] $rax
	#DEBUG_VALUE: ~TimingArray:this <- $rax
	#DEBUG_VALUE: ~vector:this <- [DW_OP_plus_uconst 8, DW_OP_stack_value] $rax
	#DEBUG_VALUE: ~_Vector_base:this <- [DW_OP_plus_uconst 8, DW_OP_stack_value] $rax
	#DEBUG_VALUE: _M_deallocate:this <- [DW_OP_plus_uconst 8, DW_OP_stack_value] $rax
	#DEBUG_VALUE: deallocate:__a <- [DW_OP_plus_uconst 8, DW_OP_stack_value] $rax
	#DEBUG_VALUE: deallocate:this <- [DW_OP_plus_uconst 8, DW_OP_stack_value] $rax
	movq	%rsp, current_rsp
	movq	%r15, tmp_gpr1
	leaq	32(%rbx), %r15
	movq	checkpoint_sp, %rsp
	pushq	%r15
	pushq	(%r15)
	movq	%rsp, checkpoint_sp
	movq	tmp_gpr1, %r15
	movq	current_rsp, %rsp
	movq	%rax, 32(%rbx)          # 8-byte Spill
.Ltmp34:
	#DEBUG_VALUE: operator[]:this <- [DW_OP_plus_uconst 32] [$rbx+0]
	#DEBUG_VALUE: operator[]:this <- [DW_OP_plus_uconst 32, DW_OP_plus_uconst 8, DW_OP_stack_value] [$rbx+0]
	#DEBUG_VALUE: ~TimingArray:this <- [DW_OP_plus_uconst 32] [$rbx+0]
	#DEBUG_VALUE: ~vector:this <- [DW_OP_plus_uconst 32, DW_OP_plus_uconst 8, DW_OP_stack_value] [$rbx+0]
	#DEBUG_VALUE: ~_Vector_base:this <- [DW_OP_plus_uconst 32, DW_OP_plus_uconst 8, DW_OP_stack_value] [$rbx+0]
	#DEBUG_VALUE: _M_deallocate:this <- [DW_OP_plus_uconst 32, DW_OP_plus_uconst 8, DW_OP_stack_value] [$rbx+0]
	#DEBUG_VALUE: deallocate:__a <- [DW_OP_plus_uconst 32, DW_OP_plus_uconst 8, DW_OP_stack_value] [$rbx+0]
	#DEBUG_VALUE: deallocate:this <- [DW_OP_plus_uconst 32, DW_OP_plus_uconst 8, DW_OP_stack_value] [$rbx+0]
	#DEBUG_VALUE: LeakByte:timing_array <- [DW_OP_plus_uconst 32, DW_OP_deref] [$rbx+0]
	#DEBUG_VALUE: ~TimingArray:this <- [DW_OP_plus_uconst 32] [$rbx+0]
	#DEBUG_VALUE: ~vector:this <- [DW_OP_plus_uconst 32, DW_OP_plus_uconst 8, DW_OP_stack_value] [$rbx+0]
	#DEBUG_VALUE: ~_Vector_base:this <- [DW_OP_plus_uconst 32, DW_OP_plus_uconst 8, DW_OP_stack_value] [$rbx+0]
	#DEBUG_VALUE: _M_deallocate:this <- [DW_OP_plus_uconst 32, DW_OP_plus_uconst 8, DW_OP_stack_value] [$rbx+0]
	#DEBUG_VALUE: deallocate:__a <- [DW_OP_plus_uconst 32, DW_OP_plus_uconst 8, DW_OP_stack_value] [$rbx+0]
	#DEBUG_VALUE: deallocate:this <- [DW_OP_plus_uconst 32, DW_OP_plus_uconst 8, DW_OP_stack_value] [$rbx+0]
	leaq	8(%rax), %rax
	movq	%rsp, current_rsp
	movq	%r15, tmp_gpr1
	leaq	40(%rbx), %r15
	movq	checkpoint_sp, %rsp
	pushq	%r15
	pushq	(%r15)
	movq	%rsp, checkpoint_sp
	movq	tmp_gpr1, %r15
	movq	current_rsp, %rsp
	movq	%rax, 40(%rbx)          # 8-byte Spill
	xorl	%eax, %eax
	.loc	58 89 3                 # spectre_v1_pht_sa.cc:89:3
	movq	%rsp, current_rsp
	movq	%r15, tmp_gpr1
	leaq	24(%rbx), %r15
	movq	checkpoint_sp, %rsp
	pushq	%r15
	pushq	(%r15)
	movq	%rsp, checkpoint_sp
	movq	tmp_gpr1, %r15
	movq	current_rsp, %rsp
	movq	%rax, 24(%rbx)          # 8-byte Spill
	movq	%rsp, current_rsp
	movq	%r15, tmp_gpr1
	leaq	56(%rbx), %r15
	movq	checkpoint_sp, %rsp
	pushq	%r15
	pushq	(%r15)
	movq	%rsp, checkpoint_sp
	movq	tmp_gpr1, %r15
	movq	current_rsp, %rsp
	movq	%r14, 56(%rbx)          # 8-byte Spill
	.p2align	4, 0x90
.LBB0_7:                                # %for.body
                                        # =>This Loop Header: Depth=1
                                        #     Child Loop BB0_9 Depth 2
                                        #       Child Loop BB0_11 Depth 3
	#DEBUG_VALUE: LeakByte:timing_array <- [DW_OP_plus_uconst 32, DW_OP_deref] [$rbx+0]
	#DEBUG_VALUE: main:private_offset <- [DW_OP_plus_uconst 88] [$rbx+0]
.Ltmp35:
	#DEBUG_VALUE: i <- [DW_OP_plus_uconst 24] [$rbx+0]
	.loc	58 93 27 is_stmt 1      # spectre_v1_pht_sa.cc:93:27
	subq	$6, instruction_counter
	movq	public_data(%rip), %r15
.Ltmp36:
	#DEBUG_VALUE: LeakByte:data <- $r15
	.loc	58 29 3                 # spectre_v1_pht_sa.cc:29:3
	movq	%rsp, current_rsp
	movq	%r15, tmp_gpr1
	leaq	2147450886(%r14), %r15
.Ltmp37:
	movq	checkpoint_sp, %rsp
	pushq	%r15
	pushq	(%r15)
	movq	%rsp, checkpoint_sp
	movq	tmp_gpr1, %r15
	movq	current_rsp, %rsp
	movl	$0, 2147450886(%r14)
	.loc	58 29 15 is_stmt 0      # spectre_v1_pht_sa.cc:29:15
	movq	32(%rbx), %rdi          # 8-byte Reload
	movq	%rsp, current_rsp
	leaq	specfuzz_rtl_frame, %rsp
	callq	specfuzz_rlbk_external_call
	movq	current_rsp, %rsp
	addw	$1, disable_speculation
	callq	_ZN11TimingArrayC1Ev
	subw	$1, disable_speculation
.Ltmp0:
	.loc	58 36 7 is_stmt 1       # spectre_v1_pht_sa.cc:36:7
	movl	$8, %edi
	movq	%rsp, current_rsp
	leaq	specfuzz_rtl_frame, %rsp
	callq	specfuzz_rlbk_external_call
	movq	current_rsp, %rsp
	addw	$1, disable_speculation
	callq	_Znwm
	subw	$1, disable_speculation
.Ltmp1:
# %bb.8:                                # %invoke.cont.i
                                        #   in Loop: Header=BB0_7 Depth=1
.Ltmp38:
	#DEBUG_VALUE: LeakByte:data <- $r15
	#DEBUG_VALUE: i <- [DW_OP_plus_uconst 24] [$rbx+0]
	#DEBUG_VALUE: LeakByte:timing_array <- [DW_OP_plus_uconst 32, DW_OP_deref] [$rbx+0]
	#DEBUG_VALUE: main:private_offset <- [DW_OP_plus_uconst 88] [$rbx+0]
	.loc	58 0 7 is_stmt 0        # spectre_v1_pht_sa.cc:0:7
	subq	$14, instruction_counter
	movq	%rax, %r12
	movq	88(%rbx), %rax          # 8-byte Reload
	movq	24(%rbx), %rcx          # 8-byte Reload
	leaq	(%rax,%rcx), %rax
.Ltmp39:
	#DEBUG_VALUE: operator():__ptr <- $r12
	#DEBUG_VALUE: operator():__ptr <- $r12
	#DEBUG_VALUE: LeakByte:offset <- [DW_OP_plus_uconst 112] [$rbx+0]
	.loc	58 36 18                # spectre_v1_pht_sa.cc:36:18
	movq	%rsp, current_rsp
	movq	%r15, tmp_gpr1
	leaq	112(%rbx), %r15
.Ltmp40:
	movq	checkpoint_sp, %rsp
	pushq	%r15
	pushq	(%r15)
	movq	%rsp, checkpoint_sp
	movq	tmp_gpr1, %r15
	movq	current_rsp, %rsp
	movq	%rax, 112(%rbx)         # 8-byte Spill
	movq	%r15, %rdi
	movq	%rsp, current_rsp
	leaq	specfuzz_rtl_frame, %rsp
	callq	specfuzz_rlbk_external_call
	movq	current_rsp, %rsp
	addw	$1, disable_speculation
	callq	strlen
	subw	$1, disable_speculation
	movq	%rax, %r14
	.loc	58 36 7                 # spectre_v1_pht_sa.cc:36:7
	movq	%r12, %rdi
	movq	%rsp, current_rsp
	leaq	asan_rtl_frame, %rsp
	callq	__asan_store8
	movq	current_rsp, %rsp
	movq	%rsp, current_rsp
	movq	%r15, tmp_gpr1
	leaq	(%r12), %r15
	movq	checkpoint_sp, %rsp
	pushq	%r15
	pushq	(%r15)
	movq	%rsp, checkpoint_sp
	movq	tmp_gpr1, %r15
	movq	current_rsp, %rsp
	movq	%r14, (%r12)
.Ltmp41:
	#DEBUG_VALUE: run <- 0
	#DEBUG_VALUE: LeakByte:size_in_heap <- [DW_OP_deref] undef
	.loc	58 0 0                  # spectre_v1_pht_sa.cc:0:0
	xorl	%r14d, %r14d
	movq	%rsp, current_rsp
	movq	%r15, tmp_gpr1
	leaq	64(%rbx), %r15
	movq	checkpoint_sp, %rsp
	pushq	%r15
	pushq	(%r15)
	movq	%rsp, checkpoint_sp
	movq	tmp_gpr1, %r15
	movq	current_rsp, %rsp
	movq	%r12, 64(%rbx)          # 8-byte Spill
.Ltmp42:
	#DEBUG_VALUE: operator():__ptr <- [DW_OP_plus_uconst 64] [$rbx+0]
	#DEBUG_VALUE: operator():__ptr <- [DW_OP_plus_uconst 64] [$rbx+0]
	movq	%rsp, current_rsp
	movq	%r15, tmp_gpr1
	leaq	72(%rbx), %r15
	movq	checkpoint_sp, %rsp
	pushq	%r15
	pushq	(%r15)
	movq	%rsp, checkpoint_sp
	movq	tmp_gpr1, %r15
	movq	current_rsp, %rsp
	movq	%r15, 72(%rbx)          # 8-byte Spill
	.p2align	4, 0x90
.LBB0_9:                                # %for.cond.i
                                        #   Parent Loop BB0_7 Depth=1
                                        # =>  This Loop Header: Depth=2
                                        #       Child Loop BB0_11 Depth 3
	#DEBUG_VALUE: LeakByte:offset <- [DW_OP_plus_uconst 112] [$rbx+0]
.Ltmp43:
	#DEBUG_VALUE: LeakByte:data <- $r15
	#DEBUG_VALUE: i <- [DW_OP_plus_uconst 24] [$rbx+0]
	#DEBUG_VALUE: LeakByte:timing_array <- [DW_OP_plus_uconst 32, DW_OP_deref] [$rbx+0]
	#DEBUG_VALUE: main:private_offset <- [DW_OP_plus_uconst 88] [$rbx+0]
.Ltmp3:
	#DEBUG_VALUE: run <- $r14
	.loc	58 39 18 is_stmt 1      # spectre_v1_pht_sa.cc:39:18
	subq	$2, instruction_counter
	movq	32(%rbx), %rdi          # 8-byte Reload
	movq	%rsp, current_rsp
	leaq	specfuzz_rtl_frame, %rsp
	callq	specfuzz_rlbk_external_call
	movq	current_rsp, %rsp
	addw	$1, disable_speculation
	callq	_ZN11TimingArray14FlushFromCacheEv
	subw	$1, disable_speculation
.Ltmp4:
.Ltmp44:
# %bb.10:                               # %invoke.cont3.i
                                        #   in Loop: Header=BB0_9 Depth=2
	#DEBUG_VALUE: run <- $r14
	#DEBUG_VALUE: LeakByte:offset <- [DW_OP_plus_uconst 112] [$rbx+0]
	#DEBUG_VALUE: LeakByte:data <- $r15
	#DEBUG_VALUE: i <- [DW_OP_plus_uconst 24] [$rbx+0]
	#DEBUG_VALUE: LeakByte:timing_array <- [DW_OP_plus_uconst 32, DW_OP_deref] [$rbx+0]
	#DEBUG_VALUE: main:private_offset <- [DW_OP_plus_uconst 88] [$rbx+0]
	.loc	58 43 29                # spectre_v1_pht_sa.cc:43:29
	subq	$10, instruction_counter
	movq	%r15, %rdi
	movq	%rsp, current_rsp
	leaq	specfuzz_rtl_frame, %rsp
	callq	specfuzz_rlbk_external_call
	movq	current_rsp, %rsp
	addw	$1, disable_speculation
	callq	strlen
	subw	$1, disable_speculation
	movq	%rax, %rcx
	.loc	58 43 27 is_stmt 0      # spectre_v1_pht_sa.cc:43:27
	xorl	%edx, %edx
	movq	%rsp, current_rsp
	movq	%r15, tmp_gpr1
	leaq	96(%rbx), %r15
.Ltmp45:
	.loc	58 0 27                 # spectre_v1_pht_sa.cc:0:27
	movq	checkpoint_sp, %rsp
	pushq	%r15
	pushq	(%r15)
	movq	%rsp, checkpoint_sp
	movq	tmp_gpr1, %r15
	movq	current_rsp, %rsp
	movq	%r14, 96(%rbx)          # 8-byte Spill
.Ltmp46:
	#DEBUG_VALUE: run <- [DW_OP_plus_uconst 96] [$rbx+0]
	.loc	58 43 27                # spectre_v1_pht_sa.cc:43:27
	movq	%r14, %rax
	divq	%rcx
	movq	%rdx, %r13
	movq	%rsp, current_rsp
	movq	%r15, tmp_gpr1
	leaq	104(%rbx), %r15
	movq	checkpoint_sp, %rsp
	pushq	%r15
	pushq	(%r15)
	movq	%rsp, checkpoint_sp
	movq	tmp_gpr1, %r15
	movq	current_rsp, %rsp
	movq	%rdx, 104(%rbx)         # 8-byte Spill
	movl	$1, %r15d
.Ltmp47:
	#DEBUG_VALUE: i <- 0
	.p2align	4, 0x90
.LBB0_11:                               # %invoke.cont9.i
                                        #   Parent Loop BB0_7 Depth=1
                                        #     Parent Loop BB0_9 Depth=2
                                        # =>    This Inner Loop Header: Depth=3
	#DEBUG_VALUE: run <- [DW_OP_plus_uconst 96] [$rbx+0]
	#DEBUG_VALUE: LeakByte:offset <- [DW_OP_plus_uconst 112] [$rbx+0]
	#DEBUG_VALUE: i <- [DW_OP_plus_uconst 24] [$rbx+0]
	#DEBUG_VALUE: LeakByte:timing_array <- [DW_OP_plus_uconst 32, DW_OP_deref] [$rbx+0]
	#DEBUG_VALUE: main:private_offset <- [DW_OP_plus_uconst 88] [$rbx+0]
	#DEBUG_VALUE: LeakByte:size_in_heap <- [DW_OP_deref] undef
	#DEBUG_VALUE: i <- undef
	#DEBUG_VALUE: FlushDataCacheLine:address <- [DW_OP_plus_uconst 64] [$rbx+0]
	#DEBUG_VALUE: FlushDataCacheLineNoBarrier:address <- [DW_OP_plus_uconst 64] [$rbx+0]
	.file	60 "/usr/local/google/home/zbrid/sanitizer/safeside/demos/spectre_v1/./instr_x86.h"
	.loc	60 32 3 is_stmt 1       # ./instr_x86.h:32:3
	subq	$9, instruction_counter
	movq	%rsp, current_rsp
	movq	%r15, tmp_gpr1
	leaq	(%r12), %r15
	movq	checkpoint_sp, %rsp
	pushq	%r15
	pushq	(%r15)
	movq	%rsp, checkpoint_sp
	movq	tmp_gpr1, %r15
	movq	current_rsp, %rsp
	clflush	(%r12)
.Ltmp48:
	.loc	60 27 3                 # ./instr_x86.h:27:3
	mfence
	.loc	60 28 3                 # ./instr_x86.h:28:3
	movq	%rsp, current_rsp
	leaq	specfuzz_rtl_frame, %rsp
	callq	specfuzz_rlbk_serializing
	movq	current_rsp, %rsp
	lfence
.Ltmp49:
	.loc	58 63 63                # spectre_v1_pht_sa.cc:63:63
	testl	$2047, %r15d            # imm = 0x7FF
	.loc	58 63 18 is_stmt 0      # spectre_v1_pht_sa.cc:63:18
	movq	%r13, %r14
	cmoveq	112(%rbx), %r14         # 8-byte Folded Reload
.Ltmp50:
	#DEBUG_VALUE: local_offset <- $r14
	#DEBUG_VALUE: LeakByte:size_in_heap <- [DW_OP_deref] undef
	.loc	58 65 26 is_stmt 1      # spectre_v1_pht_sa.cc:65:26
	movq	%r12, %rdi
	movq	%rsp, current_rsp
	leaq	asan_rtl_frame, %rsp
	callq	__asan_load8
	movq	current_rsp, %rsp
	.loc	58 65 24 is_stmt 0      # spectre_v1_pht_sa.cc:65:24
	cmpq	(%r12), %r14
.Ltmp51:
	.loc	58 65 11                # spectre_v1_pht_sa.cc:65:11
	movq	%rsp, current_rsp
	leaq	specfuzz_rtl_frame, %rsp
	callq	specfuzz_chkp
	movq	current_rsp, %rsp
	jmp	.LBB0_51
	jb	.LBB0_13
	jmp	.LBB0_12
.Ltmp52:
.LBB0_51:                               # %invoke.cont9.i
                                        #   in Loop: Header=BB0_11 Depth=3
	jae	.LBB0_13
.LBB0_12:                               # %if.then.i
                                        #   in Loop: Header=BB0_11 Depth=3
	#DEBUG_VALUE: run <- [DW_OP_plus_uconst 96] [$rbx+0]
.Ltmp53:
	#DEBUG_VALUE: local_offset <- $r14
	#DEBUG_VALUE: LeakByte:offset <- [DW_OP_plus_uconst 112] [$rbx+0]
	#DEBUG_VALUE: i <- [DW_OP_plus_uconst 24] [$rbx+0]
	#DEBUG_VALUE: LeakByte:timing_array <- [DW_OP_plus_uconst 32, DW_OP_deref] [$rbx+0]
	#DEBUG_VALUE: main:private_offset <- [DW_OP_plus_uconst 88] [$rbx+0]
	.loc	58 0 11                 # spectre_v1_pht_sa.cc:0:11
	subq	$2, instruction_counter
	movq	72(%rbx), %r12          # 8-byte Reload
.Ltmp54:
	.loc	58 69 33 is_stmt 1      # spectre_v1_pht_sa.cc:69:33
	leaq	(%r12,%r14), %rdi
	movq	%rsp, current_rsp
	leaq	asan_rtl_frame, %rsp
	callq	__asan_load1
	movq	current_rsp, %rsp
	movq	%rsp, current_rsp
	leaq	specfuzz_rtl_frame, %rsp
	callq	specfuzz_rlbk_if_done
	movq	current_rsp, %rsp
	subq	$16, instruction_counter
	movsbl	(%r12,%r14), %eax
.Ltmp55:
	.loc	13 87 25                # ./timing_array.h:87:25
	imull	$113, %eax, %eax
	.loc	13 87 22 is_stmt 0      # ./timing_array.h:87:22
	addl	$100, %eax
	.loc	13 87 31                # ./timing_array.h:87:31
	movzbl	%al, %eax
.Ltmp56:
	#DEBUG_VALUE: operator[]:el <- $rax
	.loc	13 90 24 is_stmt 1      # ./timing_array.h:90:24
	imulq	$4160, %rax, %r14       # imm = 0x1040
.Ltmp57:
	.loc	13 0 24 is_stmt 0       # ./timing_array.h:0:24
	movq	40(%rbx), %r12          # 8-byte Reload
.Ltmp58:
	.loc	22 1043 25 is_stmt 1    # /usr/lib/gcc/x86_64-linux-gnu/9/../../../../include/c++/9/bits/stl_vector.h:1043:25
	movq	%r12, %rdi
	movq	%rsp, current_rsp
	leaq	asan_rtl_frame, %rsp
	callq	__asan_load8
.Ltmp59:
	movq	current_rsp, %rsp
	movq	(%r12), %r12
.Ltmp60:
	.loc	13 90 45                # ./timing_array.h:90:45
	leaq	(%r12,%r14), %rdi
	addq	$4160, %rdi             # imm = 0x1040
.Ltmp61:
	#DEBUG_VALUE: ForceRead:p <- $rdi
	.file	61 "/usr/local/google/home/zbrid/sanitizer/safeside/demos/spectre_v1/./utils.h"
	.loc	61 21 9                 # ./utils.h:21:9
	movq	%rsp, current_rsp
	leaq	asan_rtl_frame, %rsp
	callq	__asan_load1
.Ltmp62:
	movq	current_rsp, %rsp
	movzbl	4160(%r12,%r14), %eax
	movq	64(%rbx), %r12          # 8-byte Reload
.Ltmp63:
.LBB0_13:                               # %if.end.i
                                        #   in Loop: Header=BB0_11 Depth=3
	#DEBUG_VALUE: run <- [DW_OP_plus_uconst 96] [$rbx+0]
	#DEBUG_VALUE: LeakByte:offset <- [DW_OP_plus_uconst 112] [$rbx+0]
	#DEBUG_VALUE: i <- [DW_OP_plus_uconst 24] [$rbx+0]
	#DEBUG_VALUE: LeakByte:timing_array <- [DW_OP_plus_uconst 32, DW_OP_deref] [$rbx+0]
	#DEBUG_VALUE: main:private_offset <- [DW_OP_plus_uconst 88] [$rbx+0]
	#DEBUG_VALUE: i <- [DW_OP_plus_uconst 1, DW_OP_stack_value] undef
	.loc	58 49 26                # spectre_v1_pht_sa.cc:49:26
	subq	$2, instruction_counter
	addq	$1, %r15
	cmpq	$2049, %r15             # imm = 0x801
	movq	%rsp, current_rsp
	leaq	specfuzz_rtl_frame, %rsp
	callq	specfuzz_chkp
	movq	current_rsp, %rsp
	jmp	.LBB0_52
	je	.LBB0_11
	jmp	.LBB0_14
.Ltmp64:
.LBB0_52:                               # %if.end.i
                                        #   in Loop: Header=BB0_11 Depth=3
	.loc	58 0 26 is_stmt 0       # spectre_v1_pht_sa.cc:0:26
	jne	.LBB0_11
.LBB0_14:                               # %for.cond.cleanup.i
                                        #   in Loop: Header=BB0_9 Depth=2
	#DEBUG_VALUE: run <- [DW_OP_plus_uconst 96] [$rbx+0]
	#DEBUG_VALUE: LeakByte:offset <- [DW_OP_plus_uconst 112] [$rbx+0]
	#DEBUG_VALUE: i <- [DW_OP_plus_uconst 24] [$rbx+0]
	#DEBUG_VALUE: LeakByte:timing_array <- [DW_OP_plus_uconst 32, DW_OP_deref] [$rbx+0]
	#DEBUG_VALUE: main:private_offset <- [DW_OP_plus_uconst 88] [$rbx+0]
	subq	$8, instruction_counter
	movq	72(%rbx), %r15          # 8-byte Reload
	.loc	58 73 61 is_stmt 1      # spectre_v1_pht_sa.cc:73:61
	addq	%r15, %r13
	movq	%r13, %rdi
	movq	%rsp, current_rsp
	leaq	asan_rtl_frame, %rsp
	callq	__asan_load1
	movq	current_rsp, %rsp
	movq	104(%rbx), %rax         # 8-byte Reload
	movsbl	(%r15,%rax), %esi
.Ltmp6:
	.loc	58 73 28 is_stmt 0      # spectre_v1_pht_sa.cc:73:28
	movq	32(%rbx), %rdi          # 8-byte Reload
	movq	%rsp, current_rsp
	leaq	specfuzz_rtl_frame, %rsp
	callq	specfuzz_rlbk_external_call
	movq	current_rsp, %rsp
	addw	$1, disable_speculation
	callq	_ZN11TimingArray32FindFirstCachedElementIndexAfterEi
	subw	$1, disable_speculation
.Ltmp7:
# %bb.15:                               # %invoke.cont25.i
                                        #   in Loop: Header=BB0_9 Depth=2
	#DEBUG_VALUE: run <- [DW_OP_plus_uconst 96] [$rbx+0]
	#DEBUG_VALUE: LeakByte:offset <- [DW_OP_plus_uconst 112] [$rbx+0]
	#DEBUG_VALUE: i <- [DW_OP_plus_uconst 24] [$rbx+0]
	#DEBUG_VALUE: LeakByte:timing_array <- [DW_OP_plus_uconst 32, DW_OP_deref] [$rbx+0]
	#DEBUG_VALUE: main:private_offset <- [DW_OP_plus_uconst 88] [$rbx+0]
	.loc	58 0 28                 # spectre_v1_pht_sa.cc:0:28
	subq	$2, instruction_counter
	movl	%eax, %r14d
.Ltmp65:
	.loc	58 74 13 is_stmt 1      # spectre_v1_pht_sa.cc:74:13
	testl	%eax, %eax
	.loc	58 74 18 is_stmt 0      # spectre_v1_pht_sa.cc:74:18
	movq	%rsp, current_rsp
	leaq	specfuzz_rtl_frame, %rsp
	callq	specfuzz_chkp
	movq	current_rsp, %rsp
	jmp	.LBB0_53
	jns	.LBB0_17
	jmp	.LBB0_16
.LBB0_53:                               # %invoke.cont25.i
                                        #   in Loop: Header=BB0_9 Depth=2
	js	.LBB0_17
.LBB0_16:                               # %land.lhs.true.i
                                        #   in Loop: Header=BB0_9 Depth=2
	#DEBUG_VALUE: run <- [DW_OP_plus_uconst 96] [$rbx+0]
	#DEBUG_VALUE: LeakByte:offset <- [DW_OP_plus_uconst 112] [$rbx+0]
	#DEBUG_VALUE: i <- [DW_OP_plus_uconst 24] [$rbx+0]
	#DEBUG_VALUE: LeakByte:timing_array <- [DW_OP_plus_uconst 32, DW_OP_deref] [$rbx+0]
	#DEBUG_VALUE: main:private_offset <- [DW_OP_plus_uconst 88] [$rbx+0]
	.loc	58 74 28                # spectre_v1_pht_sa.cc:74:28
	subq	$4, instruction_counter
	movq	%r13, %rdi
	movq	%rsp, current_rsp
	leaq	asan_rtl_frame, %rsp
	callq	__asan_load1
	movq	current_rsp, %rsp
	movsbl	(%r13), %eax
	.loc	58 74 25                # spectre_v1_pht_sa.cc:74:25
	cmpl	%eax, %r14d
.Ltmp66:
	.loc	58 74 9                 # spectre_v1_pht_sa.cc:74:9
	movq	%rsp, current_rsp
	leaq	specfuzz_rtl_frame, %rsp
	callq	specfuzz_chkp
	movq	current_rsp, %rsp
	jmp	.LBB0_54
	je	.LBB0_36
	jmp	.LBB0_17
.LBB0_54:                               # %land.lhs.true.i
                                        #   in Loop: Header=BB0_9 Depth=2
	jne	.LBB0_36
.LBB0_17:                               # %if.end34.i
                                        #   in Loop: Header=BB0_9 Depth=2
	#DEBUG_VALUE: run <- [DW_OP_plus_uconst 96] [$rbx+0]
	#DEBUG_VALUE: LeakByte:offset <- [DW_OP_plus_uconst 112] [$rbx+0]
	#DEBUG_VALUE: i <- [DW_OP_plus_uconst 24] [$rbx+0]
	#DEBUG_VALUE: LeakByte:timing_array <- [DW_OP_plus_uconst 32, DW_OP_deref] [$rbx+0]
	#DEBUG_VALUE: main:private_offset <- [DW_OP_plus_uconst 88] [$rbx+0]
.Ltmp67:
	#DEBUG_VALUE: run <- [DW_OP_plus_uconst 1, DW_OP_stack_value] undef
	.loc	58 0 9                  # spectre_v1_pht_sa.cc:0:9
	subq	$5, instruction_counter
	movq	96(%rbx), %r14          # 8-byte Reload
.Ltmp68:
	.loc	58 78 13 is_stmt 1      # spectre_v1_pht_sa.cc:78:13
	cmpq	$100001, %r14           # imm = 0x186A1
.Ltmp69:
	.loc	58 38 22                # spectre_v1_pht_sa.cc:38:22
	leaq	1(%r14), %r14
.Ltmp70:
	.loc	58 78 9                 # spectre_v1_pht_sa.cc:78:9
	movq	%rsp, current_rsp
	leaq	specfuzz_rtl_frame, %rsp
	callq	specfuzz_chkp
	movq	current_rsp, %rsp
	jmp	.LBB0_55
	jae	.LBB0_9
	jmp	.LBB0_18
.LBB0_55:                               # %if.end34.i
                                        #   in Loop: Header=BB0_9 Depth=2
	jb	.LBB0_9
	jmp	.LBB0_18
.Ltmp71:
	.p2align	4, 0x90
.LBB0_36:                               # %_ZNSt10unique_ptrImSt14default_deleteImEED2Ev.exit90.i
                                        #   in Loop: Header=BB0_7 Depth=1
	#DEBUG_VALUE: run <- [DW_OP_plus_uconst 96] [$rbx+0]
	#DEBUG_VALUE: LeakByte:offset <- [DW_OP_plus_uconst 112] [$rbx+0]
	#DEBUG_VALUE: i <- [DW_OP_plus_uconst 24] [$rbx+0]
	#DEBUG_VALUE: LeakByte:timing_array <- [DW_OP_plus_uconst 32, DW_OP_deref] [$rbx+0]
	#DEBUG_VALUE: main:private_offset <- [DW_OP_plus_uconst 88] [$rbx+0]
	#DEBUG_VALUE: LeakByte:size_in_heap <- [DW_OP_deref] undef
	#DEBUG_VALUE: ret <- $r14d
	#DEBUG_VALUE: operator<<<std::char_traits<char> >:__c <- $r14b
	#DEBUG_VALUE: ~unique_ptr:this <- undef
	#DEBUG_VALUE: __ptr <- undef
	.loc	58 0 9 is_stmt 0        # spectre_v1_pht_sa.cc:0:9
	subq	$8, instruction_counter
	movl	%r14d, %r13d
.Ltmp72:
	#DEBUG_VALUE: ret <- $r13d
	#DEBUG_VALUE: operator<<<std::char_traits<char> >:__c <- $r13b
	#DEBUG_VALUE: ret <- $r13d
	.loc	6 81 2 is_stmt 1        # /usr/lib/gcc/x86_64-linux-gnu/9/../../../../include/c++/9/bits/unique_ptr.h:81:2
	movq	%r12, %rdi
	movq	%rsp, current_rsp
	leaq	specfuzz_rtl_frame, %rsp
	callq	specfuzz_rlbk_external_call
	movq	current_rsp, %rsp
	addw	$1, disable_speculation
	callq	_ZdlPv
	subw	$1, disable_speculation
	movq	40(%rbx), %r14          # 8-byte Reload
.Ltmp73:
	.loc	22 332 24               # /usr/lib/gcc/x86_64-linux-gnu/9/../../../../include/c++/9/bits/stl_vector.h:332:24
	movq	%r14, %rdi
	movq	%rsp, current_rsp
	leaq	asan_rtl_frame, %rsp
	callq	__asan_load8
	movq	current_rsp, %rsp
	movq	(%r14), %rdi
.Ltmp74:
	#DEBUG_VALUE: _M_deallocate:__p <- $rdi
	#DEBUG_VALUE: deallocate:__p <- $rdi
	#DEBUG_VALUE: deallocate:__p <- $rdi
	.loc	22 350 6                # /usr/lib/gcc/x86_64-linux-gnu/9/../../../../include/c++/9/bits/stl_vector.h:350:6
	testq	%rdi, %rdi
.Ltmp75:
	.loc	22 350 6 is_stmt 0      # /usr/lib/gcc/x86_64-linux-gnu/9/../../../../include/c++/9/bits/stl_vector.h:350:6
	movq	%rsp, current_rsp
	leaq	specfuzz_rtl_frame, %rsp
	callq	specfuzz_chkp
	movq	current_rsp, %rsp
	jmp	.LBB0_56
	jne	.LBB0_38
	jmp	.LBB0_37
.Ltmp76:
.LBB0_56:                               # %_ZNSt10unique_ptrImSt14default_deleteImEED2Ev.exit90.i
                                        #   in Loop: Header=BB0_7 Depth=1
	je	.LBB0_38
.LBB0_37:                               # %if.then.i.i.i.i84.i
                                        #   in Loop: Header=BB0_7 Depth=1
.Ltmp77:
	#DEBUG_VALUE: deallocate:__p <- $rdi
	#DEBUG_VALUE: deallocate:__p <- $rdi
	#DEBUG_VALUE: _M_deallocate:__p <- $rdi
	#DEBUG_VALUE: LeakByte:offset <- [DW_OP_plus_uconst 112] [$rbx+0]
	#DEBUG_VALUE: i <- [DW_OP_plus_uconst 24] [$rbx+0]
	#DEBUG_VALUE: LeakByte:timing_array <- [DW_OP_plus_uconst 32, DW_OP_deref] [$rbx+0]
	#DEBUG_VALUE: main:private_offset <- [DW_OP_plus_uconst 88] [$rbx+0]
	.loc	18 128 2 is_stmt 1      # /usr/lib/gcc/x86_64-linux-gnu/9/../../../../include/c++/9/ext/new_allocator.h:128:2
	subq	$1, instruction_counter
	movq	%rsp, current_rsp
	leaq	specfuzz_rtl_frame, %rsp
	callq	specfuzz_rlbk_external_call
	movq	current_rsp, %rsp
	addw	$1, disable_speculation
	callq	_ZdlPv
.Ltmp78:
	subw	$1, disable_speculation
.Ltmp79:
.LBB0_38:                               # %_ZL8LeakBytePKcm.exit
                                        #   in Loop: Header=BB0_7 Depth=1
	#DEBUG_VALUE: LeakByte:offset <- [DW_OP_plus_uconst 112] [$rbx+0]
	#DEBUG_VALUE: i <- [DW_OP_plus_uconst 24] [$rbx+0]
	#DEBUG_VALUE: LeakByte:timing_array <- [DW_OP_plus_uconst 32, DW_OP_deref] [$rbx+0]
	#DEBUG_VALUE: main:private_offset <- [DW_OP_plus_uconst 88] [$rbx+0]
	.loc	18 0 2 is_stmt 0        # /usr/lib/gcc/x86_64-linux-gnu/9/../../../../include/c++/9/ext/new_allocator.h:0:2
	subq	$7, instruction_counter
	movq	56(%rbx), %r14          # 8-byte Reload
	.loc	58 83 1 is_stmt 1       # spectre_v1_pht_sa.cc:83:1
	movq	%rsp, current_rsp
	movq	%r15, tmp_gpr1
	leaq	2147450886(%r14), %r15
	movq	checkpoint_sp, %rsp
	pushq	%r15
	pushq	(%r15)
	movq	%rsp, checkpoint_sp
	movq	tmp_gpr1, %r15
	movq	current_rsp, %rsp
	movl	$-117901064, 2147450886(%r14) # imm = 0xF8F8F8F8
.Ltmp80:
	.loc	59 517 46               # /usr/lib/gcc/x86_64-linux-gnu/9/../../../../include/c++/9/ostream:517:46
	movq	%rsp, current_rsp
	movq	%r15, tmp_gpr1
	leaq	2147450884(%r14), %r15
	movq	checkpoint_sp, %rsp
	pushq	%r15
	pushq	(%r15)
	movq	%rsp, checkpoint_sp
	movq	tmp_gpr1, %r15
	movq	current_rsp, %rsp
	movb	$1, 2147450884(%r14)
	movq	80(%rbx), %r15          # 8-byte Reload
	movq	%r15, %rdi
	movq	%rsp, current_rsp
	leaq	asan_rtl_frame, %rsp
	callq	__asan_store1
	movq	current_rsp, %rsp
	movq	%rsp, current_rsp
	movq	%r15, tmp_gpr1
	leaq	(%r15), %r15
	movq	checkpoint_sp, %rsp
	pushq	%r15
	pushq	(%r15)
	movq	%rsp, checkpoint_sp
	movq	tmp_gpr1, %r15
	movq	current_rsp, %rsp
	movb	%r13b, (%r15)
	.loc	59 518 14               # /usr/lib/gcc/x86_64-linux-gnu/9/../../../../include/c++/9/ostream:518:14
	movq	%rsp, current_rsp
	leaq	specfuzz_rtl_frame, %rsp
	callq	specfuzz_rlbk_if_done
	movq	current_rsp, %rsp
	subq	$15, instruction_counter
	movl	$_ZSt4cout, %edi
	movl	$1, %edx
	movq	%r15, %rsi
	movq	%rsp, current_rsp
	leaq	specfuzz_rtl_frame, %rsp
	callq	specfuzz_rlbk_external_call
	movq	current_rsp, %rsp
	addw	$1, disable_speculation
	callq	_ZSt16__ostream_insertIcSt11char_traitsIcEERSt13basic_ostreamIT_T0_ES6_PKS3_l
	subw	$1, disable_speculation
	.loc	59 518 7 is_stmt 0      # /usr/lib/gcc/x86_64-linux-gnu/9/../../../../include/c++/9/ostream:518:7
	movq	%rsp, current_rsp
	movq	%r15, tmp_gpr1
	leaq	2147450884(%r14), %r15
	movq	checkpoint_sp, %rsp
	pushq	%r15
	pushq	(%r15)
	movq	%rsp, checkpoint_sp
	movq	tmp_gpr1, %r15
	movq	current_rsp, %rsp
	movb	$-8, 2147450884(%r14)
.Ltmp81:
	.loc	58 94 15 is_stmt 1      # spectre_v1_pht_sa.cc:94:15
	movl	$_ZSt4cout, %edi
.Ltmp82:
	#DEBUG_VALUE: operator<<<std::char_traits<char> >:__out <- $rdi
	movq	%rsp, current_rsp
	leaq	specfuzz_rtl_frame, %rsp
	callq	specfuzz_rlbk_external_call
	movq	current_rsp, %rsp
	addw	$1, disable_speculation
	callq	_ZNSo5flushEv
.Ltmp83:
	subw	$1, disable_speculation
	movq	24(%rbx), %rax          # 8-byte Reload
	movq	%rax, %r15
.Ltmp84:
	.loc	58 89 48                # spectre_v1_pht_sa.cc:89:48
	addq	$1, %r15
.Ltmp85:
	#DEBUG_VALUE: i <- $r15
	.loc	58 89 33 is_stmt 0      # spectre_v1_pht_sa.cc:89:33
	movq	private_data(%rip), %rdi
	.loc	58 89 26                # spectre_v1_pht_sa.cc:89:26
	movq	%rsp, current_rsp
	leaq	specfuzz_rtl_frame, %rsp
	callq	specfuzz_rlbk_external_call
	movq	current_rsp, %rsp
	addw	$1, disable_speculation
	callq	strlen
	subw	$1, disable_speculation
	movq	%r15, %rcx
.Ltmp86:
	#DEBUG_VALUE: i <- [DW_OP_plus_uconst 24] [$rbx+0]
	.loc	58 89 24                # spectre_v1_pht_sa.cc:89:24
	movq	%rsp, current_rsp
	movq	%r15, tmp_gpr1
	leaq	24(%rbx), %r15
	movq	checkpoint_sp, %rsp
	pushq	%r15
	pushq	(%r15)
	movq	%rsp, checkpoint_sp
	movq	tmp_gpr1, %r15
	movq	current_rsp, %rsp
	movq	%r15, 24(%rbx)          # 8-byte Spill
	cmpq	%rax, %r15
.Ltmp87:
	.loc	58 89 3                 # spectre_v1_pht_sa.cc:89:3
	movq	%rsp, current_rsp
	leaq	specfuzz_rtl_frame, %rsp
	callq	specfuzz_chkp
	movq	current_rsp, %rsp
	jmp	.LBB0_57
	jae	.LBB0_7
	jmp	.LBB0_21
.LBB0_57:                               # %_ZL8LeakBytePKcm.exit
                                        #   in Loop: Header=BB0_7 Depth=1
	jb	.LBB0_7
.Ltmp88:
.LBB0_21:                               # %for.cond.cleanup
	#DEBUG_VALUE: main:private_offset <- [DW_OP_plus_uconst 88] [$rbx+0]
	.loc	59 570 2 is_stmt 1      # /usr/lib/gcc/x86_64-linux-gnu/9/../../../../include/c++/9/ostream:570:2
	subq	$8, instruction_counter
	movl	$_ZSt4cout, %edi
.Ltmp89:
	#DEBUG_VALUE: operator<<<std::char_traits<char> >:__out <- $rdi
	movl	$.str.3, %esi
.Ltmp90:
	#DEBUG_VALUE: operator<<<std::char_traits<char> >:__s <- $rsi
	movl	$7, %edx
	movq	%rsp, current_rsp
	leaq	specfuzz_rtl_frame, %rsp
	callq	specfuzz_rlbk_external_call
	movq	current_rsp, %rsp
	addw	$1, disable_speculation
	callq	_ZSt16__ostream_insertIcSt11char_traitsIcEERSt13basic_ostreamIT_T0_ES6_PKS3_l
.Ltmp91:
	subw	$1, disable_speculation
.Ltmp92:
	.loc	58 97 1                 # spectre_v1_pht_sa.cc:97:1
	movq	16(%rbx), %rax          # 8-byte Reload
	movq	%rsp, current_rsp
	movq	%r15, tmp_gpr1
	leaq	(%rax), %r15
	movq	checkpoint_sp, %rsp
	pushq	%r15
	pushq	(%r15)
	movq	%rsp, checkpoint_sp
	movq	tmp_gpr1, %r15
	movq	current_rsp, %rsp
	movq	$1172321806, (%rax)     # imm = 0x45E0360E
	movq	48(%rbx), %rcx          # 8-byte Reload
	testq	%rcx, %rcx
	movq	%rsp, current_rsp
	leaq	specfuzz_rtl_frame, %rsp
	callq	specfuzz_chkp
	movq	current_rsp, %rsp
	jmp	.LBB0_58
	jne	.LBB0_23
	jmp	.LBB0_22
.LBB0_58:                               # %for.cond.cleanup
	je	.LBB0_23
.LBB0_22:
	#DEBUG_VALUE: main:private_offset <- [DW_OP_plus_uconst 88] [$rbx+0]
	.loc	58 0 1 is_stmt 0        # spectre_v1_pht_sa.cc:0:1
	subq	$6, instruction_counter
	movabsq	$-723401728380766731, %rax # imm = 0xF5F5F5F5F5F5F5F5
	.loc	58 97 1                 # spectre_v1_pht_sa.cc:97:1
	movq	%rsp, current_rsp
	movq	%r15, tmp_gpr1
	leaq	2147450880(%r14), %r15
	movq	checkpoint_sp, %rsp
	pushq	%r15
	pushq	(%r15)
	movq	%rsp, checkpoint_sp
	movq	tmp_gpr1, %r15
	movq	current_rsp, %rsp
	movq	%rax, 2147450880(%r14)
	movq	%rsp, current_rsp
	movq	%r15, tmp_gpr1
	leaq	2147450888(%r14), %r15
	movq	checkpoint_sp, %rsp
	pushq	%r15
	pushq	(%r15)
	movq	%rsp, checkpoint_sp
	movq	tmp_gpr1, %r15
	movq	current_rsp, %rsp
	movq	%rax, 2147450888(%r14)
	movq	120(%rcx), %rax
	movq	%rsp, current_rsp
	movq	%r15, tmp_gpr1
	leaq	(%rax), %r15
	movq	checkpoint_sp, %rsp
	pushq	%r15
	pushq	(%r15)
	movq	%rsp, checkpoint_sp
	movq	tmp_gpr1, %r15
	movq	current_rsp, %rsp
	movb	$0, (%rax)
	movq	%rsp, current_rsp
	leaq	specfuzz_rtl_frame, %rsp
	callq	specfuzz_rlbk_if_done
	movq	current_rsp, %rsp
	jmp	.LBB0_24
.LBB0_1:
	.loc	58 0 1                  # spectre_v1_pht_sa.cc:0:1
	subq	$5, instruction_counter
	xorl	%eax, %eax
	.loc	58 85 0 is_stmt 1       # spectre_v1_pht_sa.cc:85:0
	movq	%rax, %rcx
	movq	%rsp, current_rsp
	movq	%r15, tmp_gpr1
	leaq	48(%rbx), %r15
	movq	checkpoint_sp, %rsp
	pushq	%r15
	pushq	(%r15)
	movq	%rsp, checkpoint_sp
	movq	tmp_gpr1, %r15
	movq	current_rsp, %rsp
	movq	%rax, 48(%rbx)          # 8-byte Spill
	testq	%rax, %rax
	movq	%rsp, current_rsp
	leaq	specfuzz_rtl_frame, %rsp
	callq	specfuzz_chkp
	movq	current_rsp, %rsp
	jmp	.LBB0_59
	je	.LBB0_5
	jmp	.LBB0_4
.LBB0_59:
	.loc	58 0 0 is_stmt 0        # spectre_v1_pht_sa.cc:0:0
	jne	.LBB0_5
	jmp	.LBB0_4
.LBB0_23:
	#DEBUG_VALUE: main:private_offset <- [DW_OP_plus_uconst 88] [$rbx+0]
	.loc	58 97 1 is_stmt 1       # spectre_v1_pht_sa.cc:97:1
	subq	$2, instruction_counter
	xorps	%xmm0, %xmm0
	movq	%rsp, current_rsp
	movq	%r15, tmp_gpr1
	leaq	2147450880(%r14), %r15
	movq	checkpoint_sp, %rsp
	pushq	%r15
	pushq	(%r15)
	leaq	8(%r15), %r15
	pushq	%r15
	pushq	(%r15)
	movq	%rsp, checkpoint_sp
	movq	tmp_gpr1, %r15
	movq	current_rsp, %rsp
	movups	%xmm0, 2147450880(%r14)
.LBB0_24:
	#DEBUG_VALUE: main:private_offset <- [DW_OP_plus_uconst 88] [$rbx+0]
	subq	$9, instruction_counter
	xorl	%eax, %eax
	leaq	-40(%rbp), %rsp
	popq	%rbx
	popq	%r12
	popq	%r13
	popq	%r14
	popq	%r15
	popq	%rbp
	.cfi_def_cfa %rsp, 8
	movq	%rsp, current_rsp
	leaq	specfuzz_rtl_frame, %rsp
	callq	specfuzz_rlbk_serializing
	movq	current_rsp, %rsp
	retq
.LBB0_18:                               # %if.then36.i
	.cfi_def_cfa %rbp, 16
	#DEBUG_VALUE: LeakByte:offset <- [DW_OP_plus_uconst 112] [$rbx+0]
	#DEBUG_VALUE: i <- [DW_OP_plus_uconst 24] [$rbx+0]
	#DEBUG_VALUE: LeakByte:timing_array <- [DW_OP_plus_uconst 32, DW_OP_deref] [$rbx+0]
	#DEBUG_VALUE: main:private_offset <- [DW_OP_plus_uconst 88] [$rbx+0]
.Ltmp9:
.Ltmp93:
	.loc	59 570 2                # /usr/lib/gcc/x86_64-linux-gnu/9/../../../../include/c++/9/ostream:570:2
	subq	$4, instruction_counter
	movl	$_ZSt4cerr, %edi
.Ltmp94:
	#DEBUG_VALUE: operator<<<std::char_traits<char> >:__out <- $rdi
	movl	$.str.4, %esi
.Ltmp95:
	#DEBUG_VALUE: operator<<<std::char_traits<char> >:__s <- $rsi
	movl	$17, %edx
	movq	%rsp, current_rsp
	leaq	specfuzz_rtl_frame, %rsp
	callq	specfuzz_rlbk_external_call
	movq	current_rsp, %rsp
	addw	$1, disable_speculation
	callq	_ZSt16__ostream_insertIcSt11char_traitsIcEERSt13basic_ostreamIT_T0_ES6_PKS3_l
.Ltmp96:
	subw	$1, disable_speculation
.Ltmp10:
.Ltmp97:
# %bb.19:                               # %invoke.cont37.i
	#DEBUG_VALUE: LeakByte:offset <- [DW_OP_plus_uconst 112] [$rbx+0]
	#DEBUG_VALUE: i <- [DW_OP_plus_uconst 24] [$rbx+0]
	#DEBUG_VALUE: LeakByte:timing_array <- [DW_OP_plus_uconst 32, DW_OP_deref] [$rbx+0]
	#DEBUG_VALUE: main:private_offset <- [DW_OP_plus_uconst 88] [$rbx+0]
	#DEBUG_VALUE: endl<char, std::char_traits<char> >:__os <- undef
	.loc	59 600 29               # /usr/lib/gcc/x86_64-linux-gnu/9/../../../../include/c++/9/ostream:600:29
	subq	$10, instruction_counter
	movl	$_ZSt4cerr, %edi
.Ltmp98:
	#DEBUG_VALUE: operator<<:this <- $rdi
	movq	%rsp, current_rsp
	leaq	asan_rtl_frame, %rsp
	callq	__asan_load8
.Ltmp99:
	movq	current_rsp, %rsp
	movq	_ZSt4cerr(%rip), %r14
	leaq	-24(%r14), %rdi
	movq	%rsp, current_rsp
	leaq	asan_rtl_frame, %rsp
	callq	__asan_load8
	movq	current_rsp, %rsp
	movq	-24(%r14), %r14
.Ltmp100:
	#DEBUG_VALUE: widen:__c <- 10
	.file	62 "/usr/lib/gcc/x86_64-linux-gnu/9/../../../../include/c++/9/bits/basic_ios.h"
	.loc	62 450 30               # /usr/lib/gcc/x86_64-linux-gnu/9/../../../../include/c++/9/bits/basic_ios.h:450:30
	leaq	_ZSt4cerr+240(%r14), %rdi
	movq	%rsp, current_rsp
	leaq	asan_rtl_frame, %rsp
	callq	__asan_load8
	movq	current_rsp, %rsp
	movq	_ZSt4cerr+240(%r14), %r14
.Ltmp101:
	#DEBUG_VALUE: __check_facet<std::ctype<char> >:__f <- $r14
	#DEBUG_VALUE: widen:this <- $r14
	.loc	62 49 12                # /usr/lib/gcc/x86_64-linux-gnu/9/../../../../include/c++/9/bits/basic_ios.h:49:12
	testq	%r14, %r14
.Ltmp102:
	.loc	62 49 11 is_stmt 0      # /usr/lib/gcc/x86_64-linux-gnu/9/../../../../include/c++/9/bits/basic_ios.h:49:11
	movq	%rsp, current_rsp
	leaq	specfuzz_rtl_frame, %rsp
	callq	specfuzz_chkp
	movq	current_rsp, %rsp
	jmp	.LBB0_60
	je	.LBB0_29
	jmp	.LBB0_20
.Ltmp103:
.LBB0_60:                               # %invoke.cont37.i
	jne	.LBB0_29
.LBB0_20:                               # %if.then.i106.i
.Ltmp104:
	#DEBUG_VALUE: __check_facet<std::ctype<char> >:__f <- $r14
	#DEBUG_VALUE: LeakByte:offset <- [DW_OP_plus_uconst 112] [$rbx+0]
	#DEBUG_VALUE: i <- [DW_OP_plus_uconst 24] [$rbx+0]
	#DEBUG_VALUE: LeakByte:timing_array <- [DW_OP_plus_uconst 32, DW_OP_deref] [$rbx+0]
	#DEBUG_VALUE: main:private_offset <- [DW_OP_plus_uconst 88] [$rbx+0]
	.loc	62 50 2 is_stmt 1       # /usr/lib/gcc/x86_64-linux-gnu/9/../../../../include/c++/9/bits/basic_ios.h:50:2
	subq	$2, instruction_counter
	movq	%rsp, current_rsp
	leaq	specfuzz_rtl_frame, %rsp
	callq	specfuzz_rlbk_external_call
	movq	current_rsp, %rsp
	addw	$1, disable_speculation
	callq	__asan_handle_no_return
	subw	$1, disable_speculation
.Ltmp19:
	movq	%rsp, current_rsp
	leaq	specfuzz_rtl_frame, %rsp
	callq	specfuzz_rlbk_external_call
	movq	current_rsp, %rsp
	addw	$1, disable_speculation
	callq	_ZSt16__throw_bad_castv
	subw	$1, disable_speculation
.Ltmp20:
.Ltmp105:
# %bb.28:                               # %.noexc108.i
	#DEBUG_VALUE: main:private_offset <- [DW_OP_plus_uconst 88] [$rbx+0]
.LBB0_29:                               # %call.i.noexc99.i
	#DEBUG_VALUE: widen:this <- $r14
	#DEBUG_VALUE: LeakByte:offset <- [DW_OP_plus_uconst 112] [$rbx+0]
	#DEBUG_VALUE: i <- [DW_OP_plus_uconst 24] [$rbx+0]
	#DEBUG_VALUE: LeakByte:timing_array <- [DW_OP_plus_uconst 32, DW_OP_deref] [$rbx+0]
	#DEBUG_VALUE: main:private_offset <- [DW_OP_plus_uconst 88] [$rbx+0]
	#DEBUG_VALUE: widen:__c <- 10
	.file	63 "/usr/lib/gcc/x86_64-linux-gnu/9/../../../../include/c++/9/bits/locale_facets.h"
	.loc	63 874 6                # /usr/lib/gcc/x86_64-linux-gnu/9/../../../../include/c++/9/bits/locale_facets.h:874:6
	subq	$3, instruction_counter
	leaq	56(%r14), %rdi
	movq	%rsp, current_rsp
	leaq	asan_rtl_frame, %rsp
	callq	__asan_load1
	movq	current_rsp, %rsp
	cmpb	$0, 56(%r14)
.Ltmp106:
	.loc	63 874 6 is_stmt 0      # /usr/lib/gcc/x86_64-linux-gnu/9/../../../../include/c++/9/bits/locale_facets.h:874:6
	movq	%rsp, current_rsp
	leaq	specfuzz_rtl_frame, %rsp
	callq	specfuzz_chkp
	movq	current_rsp, %rsp
	jmp	.LBB0_61
	je	.LBB0_30
	jmp	.LBB0_31
.Ltmp107:
.LBB0_61:                               # %call.i.noexc99.i
	jne	.LBB0_30
.LBB0_31:                               # %if.end.i.i
.Ltmp108:
	#DEBUG_VALUE: widen:this <- $r14
	#DEBUG_VALUE: LeakByte:offset <- [DW_OP_plus_uconst 112] [$rbx+0]
	#DEBUG_VALUE: i <- [DW_OP_plus_uconst 24] [$rbx+0]
	#DEBUG_VALUE: LeakByte:timing_array <- [DW_OP_plus_uconst 32, DW_OP_deref] [$rbx+0]
	#DEBUG_VALUE: main:private_offset <- [DW_OP_plus_uconst 88] [$rbx+0]
.Ltmp11:
	.loc	63 876 8 is_stmt 1      # /usr/lib/gcc/x86_64-linux-gnu/9/../../../../include/c++/9/bits/locale_facets.h:876:8
	subq	$2, instruction_counter
	movq	%r14, %rdi
	movq	%rsp, current_rsp
	leaq	specfuzz_rtl_frame, %rsp
	callq	specfuzz_rlbk_external_call
	movq	current_rsp, %rsp
	addw	$1, disable_speculation
	callq	_ZNKSt5ctypeIcE13_M_widen_initEv
	subw	$1, disable_speculation
.Ltmp12:
.Ltmp109:
# %bb.32:                               # %.noexc.i
	#DEBUG_VALUE: widen:this <- $r14
	#DEBUG_VALUE: LeakByte:offset <- [DW_OP_plus_uconst 112] [$rbx+0]
	#DEBUG_VALUE: i <- [DW_OP_plus_uconst 24] [$rbx+0]
	#DEBUG_VALUE: LeakByte:timing_array <- [DW_OP_plus_uconst 32, DW_OP_deref] [$rbx+0]
	#DEBUG_VALUE: main:private_offset <- [DW_OP_plus_uconst 88] [$rbx+0]
	.loc	63 877 15               # /usr/lib/gcc/x86_64-linux-gnu/9/../../../../include/c++/9/bits/locale_facets.h:877:15
	subq	$9, instruction_counter
	movq	%r14, %rdi
	movq	%rsp, current_rsp
	leaq	asan_rtl_frame, %rsp
	callq	__asan_load8
	movq	current_rsp, %rsp
	movq	(%r14), %r15
	leaq	48(%r15), %rdi
	movq	%rsp, current_rsp
	leaq	asan_rtl_frame, %rsp
	callq	__asan_load8
	movq	current_rsp, %rsp
.Ltmp13:
	movl	$10, %esi
	movq	%r14, %rdi
	movq	%rsp, current_rsp
	leaq	specfuzz_rtl_frame, %rsp
	callq	specfuzz_rlbk_indirect_call
	movq	current_rsp, %rsp
	movq	%rdi, tmp_gpr1
	movq	%r14, tmp_gpr2
	movq	48(%r15), %r14
.Ltmp110:
	movq	%r14, %rdi
	movq	%rsp, current_rsp
	leaq	specfuzz_rtl_frame, %rsp
	callq	specfuzz_check_code_pointer
	movq	current_rsp, %rsp
	cmpl	$709041935, (%r14)      # imm = 0x2A431F0F
	setne	%r14b
	andw	$15, %r14w
	addw	%r14w, disable_speculation
	movq	specfuzz_call_type_stack_sp, %rdi
	movw	%r14w, (%rdi)
	subq	$2, specfuzz_call_type_stack_sp
	movq	tmp_gpr2, %r14
	movq	tmp_gpr1, %rdi
	callq	*48(%r15)
	movq	%r14, tmp_gpr2
	addq	$2, specfuzz_call_type_stack_sp
	movq	specfuzz_call_type_stack_sp, %r14
	movw	(%r14), %r14w
	andw	$15, %r14w
	subw	%r14w, disable_speculation
	movq	tmp_gpr2, %r14
.Ltmp14:
	movq	%rsp, current_rsp
	leaq	specfuzz_rtl_frame, %rsp
	callq	specfuzz_rlbk_if_done
	movq	current_rsp, %rsp
	jmp	.LBB0_33
.LBB0_30:                               # %if.then.i.i
.Ltmp111:
	#DEBUG_VALUE: widen:this <- $r14
	#DEBUG_VALUE: LeakByte:offset <- [DW_OP_plus_uconst 112] [$rbx+0]
	#DEBUG_VALUE: i <- [DW_OP_plus_uconst 24] [$rbx+0]
	#DEBUG_VALUE: LeakByte:timing_array <- [DW_OP_plus_uconst 32, DW_OP_deref] [$rbx+0]
	#DEBUG_VALUE: main:private_offset <- [DW_OP_plus_uconst 88] [$rbx+0]
	.loc	63 875 11               # /usr/lib/gcc/x86_64-linux-gnu/9/../../../../include/c++/9/bits/locale_facets.h:875:11
	subq	$3, instruction_counter
	leaq	67(%r14), %rdi
	movq	%rsp, current_rsp
	leaq	asan_rtl_frame, %rsp
	callq	__asan_load1
	movq	current_rsp, %rsp
	movb	67(%r14), %al
.Ltmp112:
.LBB0_33:                               # %call.i.noexc.i
	#DEBUG_VALUE: LeakByte:offset <- [DW_OP_plus_uconst 112] [$rbx+0]
	#DEBUG_VALUE: i <- [DW_OP_plus_uconst 24] [$rbx+0]
	#DEBUG_VALUE: LeakByte:timing_array <- [DW_OP_plus_uconst 32, DW_OP_deref] [$rbx+0]
	#DEBUG_VALUE: main:private_offset <- [DW_OP_plus_uconst 88] [$rbx+0]
.Ltmp15:
	.loc	59 600 25               # /usr/lib/gcc/x86_64-linux-gnu/9/../../../../include/c++/9/ostream:600:25
	subq	$3, instruction_counter
	movsbl	%al, %esi
	movl	$_ZSt4cerr, %edi
	movq	%rsp, current_rsp
	leaq	specfuzz_rtl_frame, %rsp
	callq	specfuzz_rlbk_external_call
	movq	current_rsp, %rsp
	addw	$1, disable_speculation
	callq	_ZNSo3putEc
	subw	$1, disable_speculation
.Ltmp16:
# %bb.34:                               # %call1.i.noexc.i
	#DEBUG_VALUE: LeakByte:offset <- [DW_OP_plus_uconst 112] [$rbx+0]
	#DEBUG_VALUE: i <- [DW_OP_plus_uconst 24] [$rbx+0]
	#DEBUG_VALUE: LeakByte:timing_array <- [DW_OP_plus_uconst 32, DW_OP_deref] [$rbx+0]
	#DEBUG_VALUE: main:private_offset <- [DW_OP_plus_uconst 88] [$rbx+0]
.Ltmp17:
.Ltmp113:
	#DEBUG_VALUE: flush<char, std::char_traits<char> >:__os <- $rax
	.loc	59 622 19               # /usr/lib/gcc/x86_64-linux-gnu/9/../../../../include/c++/9/ostream:622:19
	subq	$2, instruction_counter
	movq	%rax, %rdi
	movq	%rsp, current_rsp
	leaq	specfuzz_rtl_frame, %rsp
	callq	specfuzz_rlbk_external_call
	movq	current_rsp, %rsp
	addw	$1, disable_speculation
	callq	_ZNSo5flushEv
.Ltmp114:
	subw	$1, disable_speculation
.Ltmp18:
.Ltmp115:
# %bb.35:                               # %invoke.cont39.i
	#DEBUG_VALUE: LeakByte:offset <- [DW_OP_plus_uconst 112] [$rbx+0]
	#DEBUG_VALUE: i <- [DW_OP_plus_uconst 24] [$rbx+0]
	#DEBUG_VALUE: LeakByte:timing_array <- [DW_OP_plus_uconst 32, DW_OP_deref] [$rbx+0]
	#DEBUG_VALUE: main:private_offset <- [DW_OP_plus_uconst 88] [$rbx+0]
	.loc	58 80 7                 # spectre_v1_pht_sa.cc:80:7
	subq	$3, instruction_counter
	movq	%rsp, current_rsp
	leaq	specfuzz_rtl_frame, %rsp
	callq	specfuzz_rlbk_external_call
	movq	current_rsp, %rsp
	addw	$1, disable_speculation
	callq	__asan_handle_no_return
	subw	$1, disable_speculation
	movl	$1, %edi
	movq	%rsp, current_rsp
	leaq	specfuzz_rtl_frame, %rsp
	callq	specfuzz_rlbk_external_call
	movq	current_rsp, %rsp
	addw	$1, disable_speculation
	callq	exit
	subw	$1, disable_speculation
.Ltmp116:
.LBB0_27:                               # %lpad24.loopexit.split-lp.i
	#DEBUG_VALUE: main:private_offset <- [DW_OP_plus_uconst 88] [$rbx+0]
.Ltmp21:
	.loc	58 0 7 is_stmt 0        # spectre_v1_pht_sa.cc:0:7
	subq	$3, instruction_counter
	movq	%rax, %r14
	movq	64(%rbx), %r12          # 8-byte Reload
	movq	%rsp, current_rsp
	leaq	specfuzz_rtl_frame, %rsp
	callq	specfuzz_rlbk_if_done
	movq	current_rsp, %rsp
	jmp	.LBB0_41
.LBB0_25:                               # %lpad.i
	#DEBUG_VALUE: main:private_offset <- [DW_OP_plus_uconst 88] [$rbx+0]
.Ltmp2:
	subq	$2, instruction_counter
	movq	%rax, %r14
	movq	%rsp, current_rsp
	leaq	specfuzz_rtl_frame, %rsp
	callq	specfuzz_rlbk_if_done
	movq	current_rsp, %rsp
	jmp	.LBB0_42
.LBB0_26:                               # %lpad24.loopexit.i
	#DEBUG_VALUE: main:private_offset <- [DW_OP_plus_uconst 88] [$rbx+0]
.Ltmp8:
	movq	%rsp, current_rsp
	leaq	specfuzz_rtl_frame, %rsp
	callq	specfuzz_rlbk_if_done
	movq	current_rsp, %rsp
	jmp	.LBB0_40
.LBB0_39:                               # %lpad2.i
	#DEBUG_VALUE: main:private_offset <- [DW_OP_plus_uconst 88] [$rbx+0]
.Ltmp5:
.LBB0_40:                               # %_ZNSt10unique_ptrImSt14default_deleteImEED2Ev.exit.i
	#DEBUG_VALUE: main:private_offset <- [DW_OP_plus_uconst 88] [$rbx+0]
	subq	$1, instruction_counter
	movq	%rax, %r14
.LBB0_41:                               # %_ZNSt10unique_ptrImSt14default_deleteImEED2Ev.exit.i
	#DEBUG_VALUE: main:private_offset <- [DW_OP_plus_uconst 88] [$rbx+0]
	#DEBUG_VALUE: LeakByte:size_in_heap <- [DW_OP_deref] undef
.Ltmp117:
	#DEBUG_VALUE: ~unique_ptr:this <- undef
	#DEBUG_VALUE: __ptr <- undef
	.loc	6 81 2 is_stmt 1        # /usr/lib/gcc/x86_64-linux-gnu/9/../../../../include/c++/9/bits/unique_ptr.h:81:2
	subq	$2, instruction_counter
	movq	%r12, %rdi
	movq	%rsp, current_rsp
	leaq	specfuzz_rtl_frame, %rsp
	callq	specfuzz_rlbk_external_call
	movq	current_rsp, %rsp
	addw	$1, disable_speculation
	callq	_ZdlPv
	subw	$1, disable_speculation
.Ltmp118:
.LBB0_42:                               # %ehcleanup52.i
	#DEBUG_VALUE: main:private_offset <- [DW_OP_plus_uconst 88] [$rbx+0]
	.loc	6 0 2 is_stmt 0         # /usr/lib/gcc/x86_64-linux-gnu/9/../../../../include/c++/9/bits/unique_ptr.h:0:2
	subq	$5, instruction_counter
	movq	40(%rbx), %r15          # 8-byte Reload
.Ltmp119:
	.loc	22 332 24 is_stmt 1     # /usr/lib/gcc/x86_64-linux-gnu/9/../../../../include/c++/9/bits/stl_vector.h:332:24
	movq	%r15, %rdi
	movq	%rsp, current_rsp
	leaq	asan_rtl_frame, %rsp
	callq	__asan_load8
	movq	current_rsp, %rsp
	movq	(%r15), %rdi
.Ltmp120:
	#DEBUG_VALUE: _M_deallocate:__p <- $rdi
	#DEBUG_VALUE: deallocate:__p <- $rdi
	#DEBUG_VALUE: deallocate:__p <- $rdi
	.loc	22 350 6                # /usr/lib/gcc/x86_64-linux-gnu/9/../../../../include/c++/9/bits/stl_vector.h:350:6
	testq	%rdi, %rdi
.Ltmp121:
	.loc	22 350 6 is_stmt 0      # /usr/lib/gcc/x86_64-linux-gnu/9/../../../../include/c++/9/bits/stl_vector.h:350:6
	movq	%rsp, current_rsp
	leaq	specfuzz_rtl_frame, %rsp
	callq	specfuzz_chkp
	movq	current_rsp, %rsp
	jmp	.LBB0_62
	jne	.LBB0_44
	jmp	.LBB0_43
.Ltmp122:
.LBB0_62:                               # %ehcleanup52.i
	je	.LBB0_44
.LBB0_43:                               # %if.then.i.i.i.i.i
.Ltmp123:
	#DEBUG_VALUE: deallocate:__p <- $rdi
	#DEBUG_VALUE: deallocate:__p <- $rdi
	#DEBUG_VALUE: _M_deallocate:__p <- $rdi
	#DEBUG_VALUE: main:private_offset <- [DW_OP_plus_uconst 88] [$rbx+0]
	.loc	18 128 2 is_stmt 1      # /usr/lib/gcc/x86_64-linux-gnu/9/../../../../include/c++/9/ext/new_allocator.h:128:2
	subq	$1, instruction_counter
	movq	%rsp, current_rsp
	leaq	specfuzz_rtl_frame, %rsp
	callq	specfuzz_rlbk_external_call
	movq	current_rsp, %rsp
	addw	$1, disable_speculation
	callq	_ZdlPv
.Ltmp124:
	subw	$1, disable_speculation
.Ltmp125:
.LBB0_44:                               # %_ZN11TimingArrayD2Ev.exit.i
	#DEBUG_VALUE: main:private_offset <- [DW_OP_plus_uconst 88] [$rbx+0]
	.loc	18 0 2 is_stmt 0        # /usr/lib/gcc/x86_64-linux-gnu/9/../../../../include/c++/9/ext/new_allocator.h:0:2
	subq	$6, instruction_counter
	movq	56(%rbx), %rdx          # 8-byte Reload
	.loc	58 83 1 is_stmt 1       # spectre_v1_pht_sa.cc:83:1
	movq	%rsp, current_rsp
	movq	%r15, tmp_gpr1
	leaq	2147450886(%rdx), %r15
	movq	checkpoint_sp, %rsp
	pushq	%r15
	pushq	(%r15)
	movq	%rsp, checkpoint_sp
	movq	tmp_gpr1, %r15
	movq	current_rsp, %rsp
	movl	$-117901064, 2147450886(%rdx) # imm = 0xF8F8F8F8
	movq	16(%rbx), %rax          # 8-byte Reload
	movq	%rsp, current_rsp
	movq	%r15, tmp_gpr1
	leaq	(%rax), %r15
	movq	checkpoint_sp, %rsp
	pushq	%r15
	pushq	(%r15)
	movq	%rsp, checkpoint_sp
	movq	tmp_gpr1, %r15
	movq	current_rsp, %rsp
	movq	$1172321806, (%rax)     # imm = 0x45E0360E
	movq	48(%rbx), %rcx          # 8-byte Reload
	testq	%rcx, %rcx
	je	.LBB0_46
# %bb.45:
	#DEBUG_VALUE: main:private_offset <- [DW_OP_plus_uconst 88] [$rbx+0]
	.loc	58 0 1 is_stmt 0        # spectre_v1_pht_sa.cc:0:1
	subq	$7, instruction_counter
	movabsq	$-723401728380766731, %rax # imm = 0xF5F5F5F5F5F5F5F5
	.loc	58 83 1                 # spectre_v1_pht_sa.cc:83:1
	movq	%rsp, current_rsp
	movq	%r15, tmp_gpr1
	leaq	2147450880(%rdx), %r15
	movq	checkpoint_sp, %rsp
	pushq	%r15
	pushq	(%r15)
	movq	%rsp, checkpoint_sp
	movq	tmp_gpr1, %r15
	movq	current_rsp, %rsp
	movq	%rax, 2147450880(%rdx)
	movq	%rsp, current_rsp
	movq	%r15, tmp_gpr1
	leaq	2147450888(%rdx), %r15
	movq	checkpoint_sp, %rsp
	pushq	%r15
	pushq	(%r15)
	movq	%rsp, checkpoint_sp
	movq	tmp_gpr1, %r15
	movq	current_rsp, %rsp
	movq	%rax, 2147450888(%rdx)
	movq	120(%rcx), %rax
	movq	%rsp, current_rsp
	movq	%r15, tmp_gpr1
	leaq	(%rax), %r15
	movq	checkpoint_sp, %rsp
	pushq	%r15
	pushq	(%r15)
	movq	%rsp, checkpoint_sp
	movq	tmp_gpr1, %r15
	movq	current_rsp, %rsp
	movb	$0, (%rax)
	movq	%r14, %rdi
	movq	%rsp, current_rsp
	leaq	specfuzz_rtl_frame, %rsp
	callq	specfuzz_rlbk_external_call
	movq	current_rsp, %rsp
	addw	$1, disable_speculation
	callq	_Unwind_Resume
	subw	$1, disable_speculation
.LBB0_46:
	#DEBUG_VALUE: main:private_offset <- [DW_OP_plus_uconst 88] [$rbx+0]
	subq	$4, instruction_counter
	xorps	%xmm0, %xmm0
	movq	%rsp, current_rsp
	movq	%r15, tmp_gpr1
	leaq	2147450880(%rdx), %r15
	movq	checkpoint_sp, %rsp
	pushq	%r15
	pushq	(%r15)
	leaq	8(%r15), %r15
	pushq	%r15
	pushq	(%r15)
	movq	%rsp, checkpoint_sp
	movq	tmp_gpr1, %r15
	movq	current_rsp, %rsp
	movups	%xmm0, 2147450880(%rdx)
	movq	%r14, %rdi
	movq	%rsp, current_rsp
	leaq	specfuzz_rtl_frame, %rsp
	callq	specfuzz_rlbk_external_call
	movq	current_rsp, %rsp
	addw	$1, disable_speculation
	callq	_Unwind_Resume
	subw	$1, disable_speculation
.Ltmp126:
.Lfunc_end0:
	.size	main, .Lfunc_end0-main
	.cfi_endproc
	.file	64 "/usr/lib/gcc/x86_64-linux-gnu/9/../../../../include/c++/9/bits/char_traits.h"
	.file	65 "/usr/local/google/home/zbrid/sanitizer/safeside/demos/spectre_v1/./instr.h"
	.file	66 "<stdin>"
	.section	.gcc_except_table,"a",@progbits
	.p2align	2
GCC_except_table0:
.Lexception0:
	.byte	255                     # @LPStart Encoding = omit
	.byte	255                     # @TType Encoding = omit
	.byte	1                       # Call site Encoding = uleb128
	.uleb128 .Lcst_end0-.Lcst_begin0
.Lcst_begin0:
	.uleb128 .Lfunc_begin0-.Lfunc_begin0 # >> Call Site 1 <<
	.uleb128 .Ltmp0-.Lfunc_begin0   #   Call between .Lfunc_begin0 and .Ltmp0
	.byte	0                       #     has no landing pad
	.byte	0                       #   On action: cleanup
	.uleb128 .Ltmp0-.Lfunc_begin0   # >> Call Site 2 <<
	.uleb128 .Ltmp1-.Ltmp0          #   Call between .Ltmp0 and .Ltmp1
	.uleb128 .Ltmp2-.Lfunc_begin0   #     jumps to .Ltmp2
	.byte	0                       #   On action: cleanup
	.uleb128 .Ltmp1-.Lfunc_begin0   # >> Call Site 3 <<
	.uleb128 .Ltmp3-.Ltmp1          #   Call between .Ltmp1 and .Ltmp3
	.byte	0                       #     has no landing pad
	.byte	0                       #   On action: cleanup
	.uleb128 .Ltmp3-.Lfunc_begin0   # >> Call Site 4 <<
	.uleb128 .Ltmp4-.Ltmp3          #   Call between .Ltmp3 and .Ltmp4
	.uleb128 .Ltmp5-.Lfunc_begin0   #     jumps to .Ltmp5
	.byte	0                       #   On action: cleanup
	.uleb128 .Ltmp4-.Lfunc_begin0   # >> Call Site 5 <<
	.uleb128 .Ltmp6-.Ltmp4          #   Call between .Ltmp4 and .Ltmp6
	.byte	0                       #     has no landing pad
	.byte	0                       #   On action: cleanup
	.uleb128 .Ltmp6-.Lfunc_begin0   # >> Call Site 6 <<
	.uleb128 .Ltmp7-.Ltmp6          #   Call between .Ltmp6 and .Ltmp7
	.uleb128 .Ltmp8-.Lfunc_begin0   #     jumps to .Ltmp8
	.byte	0                       #   On action: cleanup
	.uleb128 .Ltmp7-.Lfunc_begin0   # >> Call Site 7 <<
	.uleb128 .Ltmp9-.Ltmp7          #   Call between .Ltmp7 and .Ltmp9
	.byte	0                       #     has no landing pad
	.byte	0                       #   On action: cleanup
	.uleb128 .Ltmp9-.Lfunc_begin0   # >> Call Site 8 <<
	.uleb128 .Ltmp10-.Ltmp9         #   Call between .Ltmp9 and .Ltmp10
	.uleb128 .Ltmp21-.Lfunc_begin0  #     jumps to .Ltmp21
	.byte	0                       #   On action: cleanup
	.uleb128 .Ltmp10-.Lfunc_begin0  # >> Call Site 9 <<
	.uleb128 .Ltmp19-.Ltmp10        #   Call between .Ltmp10 and .Ltmp19
	.byte	0                       #     has no landing pad
	.byte	0                       #   On action: cleanup
	.uleb128 .Ltmp19-.Lfunc_begin0  # >> Call Site 10 <<
	.uleb128 .Ltmp20-.Ltmp19        #   Call between .Ltmp19 and .Ltmp20
	.uleb128 .Ltmp21-.Lfunc_begin0  #     jumps to .Ltmp21
	.byte	0                       #   On action: cleanup
	.uleb128 .Ltmp20-.Lfunc_begin0  # >> Call Site 11 <<
	.uleb128 .Ltmp11-.Ltmp20        #   Call between .Ltmp20 and .Ltmp11
	.byte	0                       #     has no landing pad
	.byte	0                       #   On action: cleanup
	.uleb128 .Ltmp11-.Lfunc_begin0  # >> Call Site 12 <<
	.uleb128 .Ltmp12-.Ltmp11        #   Call between .Ltmp11 and .Ltmp12
	.uleb128 .Ltmp21-.Lfunc_begin0  #     jumps to .Ltmp21
	.byte	0                       #   On action: cleanup
	.uleb128 .Ltmp12-.Lfunc_begin0  # >> Call Site 13 <<
	.uleb128 .Ltmp13-.Ltmp12        #   Call between .Ltmp12 and .Ltmp13
	.byte	0                       #     has no landing pad
	.byte	0                       #   On action: cleanup
	.uleb128 .Ltmp13-.Lfunc_begin0  # >> Call Site 14 <<
	.uleb128 .Ltmp14-.Ltmp13        #   Call between .Ltmp13 and .Ltmp14
	.uleb128 .Ltmp21-.Lfunc_begin0  #     jumps to .Ltmp21
	.byte	0                       #   On action: cleanup
	.uleb128 .Ltmp14-.Lfunc_begin0  # >> Call Site 15 <<
	.uleb128 .Ltmp15-.Ltmp14        #   Call between .Ltmp14 and .Ltmp15
	.byte	0                       #     has no landing pad
	.byte	0                       #   On action: cleanup
	.uleb128 .Ltmp15-.Lfunc_begin0  # >> Call Site 16 <<
	.uleb128 .Ltmp18-.Ltmp15        #   Call between .Ltmp15 and .Ltmp18
	.uleb128 .Ltmp21-.Lfunc_begin0  #     jumps to .Ltmp21
	.byte	0                       #   On action: cleanup
	.uleb128 .Ltmp18-.Lfunc_begin0  # >> Call Site 17 <<
	.uleb128 .Lfunc_end0-.Ltmp18    #   Call between .Ltmp18 and .Lfunc_end0
	.byte	0                       #     has no landing pad
	.byte	0                       #   On action: cleanup
.Lcst_end0:
	.p2align	2
                                        # -- End function
	.section	.text.startup,"ax",@progbits
	.p2align	4, 0x90         # -- Begin function _GLOBAL__sub_I_spectre_v1_pht_sa.cc
	.type	_GLOBAL__sub_I_spectre_v1_pht_sa.cc,@function
_GLOBAL__sub_I_spectre_v1_pht_sa.cc:    # @_GLOBAL__sub_I_spectre_v1_pht_sa.cc
.Lfunc_begin1:
	.loc	58 0 0 is_stmt 1        # spectre_v1_pht_sa.cc:0:0
	.cfi_startproc
# %bb.0:                                # %entry
	nopl	42(%rbx)
	subq	$12, instruction_counter
	movq	%rsp, current_rsp
	movq	%r15, tmp_gpr1
	leaq	-8(%rsp), %r15
	movq	checkpoint_sp, %rsp
	pushq	%r15
	pushq	(%r15)
	movq	%rsp, checkpoint_sp
	movq	tmp_gpr1, %r15
	movq	current_rsp, %rsp
	pushq	%rax
	.cfi_def_cfa_offset 16
.Ltmp127:
	.loc	3 74 25 prologue_end    # /usr/lib/gcc/x86_64-linux-gnu/9/../../../../include/c++/9/iostream:74:25
	movl	$.L___asan_gen_.5, %edi
	movq	%rsp, current_rsp
	leaq	asan_rtl_frame, %rsp
	callq	__asan_before_dynamic_init
	movq	current_rsp, %rsp
	movl	$_ZStL8__ioinit, %edi
	movq	%rsp, current_rsp
	leaq	specfuzz_rtl_frame, %rsp
	callq	specfuzz_rlbk_external_call
	movq	current_rsp, %rsp
	addw	$1, disable_speculation
	callq	_ZNSt8ios_base4InitC1Ev
	subw	$1, disable_speculation
	movl	$_ZNSt8ios_base4InitD1Ev, %edi
	movl	$_ZStL8__ioinit, %esi
	movl	$__dso_handle, %edx
	movq	%rsp, current_rsp
	leaq	specfuzz_rtl_frame, %rsp
	callq	specfuzz_rlbk_external_call
	movq	current_rsp, %rsp
	addw	$1, disable_speculation
	callq	__cxa_atexit
	subw	$1, disable_speculation
	movq	%rsp, current_rsp
	leaq	asan_rtl_frame, %rsp
	callq	__asan_after_dynamic_init
	movq	current_rsp, %rsp
	popq	%rax
	.cfi_def_cfa_offset 8
	movq	%rdi, tmp_gpr1
	movq	(%rsp), %rdi
	movq	%rsp, current_rsp
	leaq	specfuzz_rtl_frame, %rsp
	callq	specfuzz_check_code_pointer
	movq	current_rsp, %rsp
	movq	tmp_gpr1, %rdi
	retq
.Ltmp128:
.Lfunc_end1:
	.size	_GLOBAL__sub_I_spectre_v1_pht_sa.cc, .Lfunc_end1-_GLOBAL__sub_I_spectre_v1_pht_sa.cc
	.cfi_endproc
                                        # -- End function
	.text
	.p2align	4, 0x90         # -- Begin function asan.module_ctor
	.type	asan.module_ctor,@function
asan.module_ctor:                       # @asan.module_ctor
.Lfunc_begin2:
	.cfi_startproc
# %bb.0:
	pushq	%rax
	.cfi_def_cfa_offset 16
	callq	__asan_init
	callq	__asan_version_mismatch_check_v8
	movl	$__unnamed_1, %edi
	movl	$8, %esi
	callq	__asan_register_globals
	popq	%rax
	.cfi_def_cfa_offset 8
	retq
.Lfunc_end2:
	.size	asan.module_ctor, .Lfunc_end2-asan.module_ctor
	.cfi_endproc
                                        # -- End function
	.p2align	4, 0x90         # -- Begin function asan.module_dtor
	.type	asan.module_dtor,@function
asan.module_dtor:                       # @asan.module_dtor
.Lfunc_begin3:
	.cfi_startproc
# %bb.0:
	pushq	%rax
	.cfi_def_cfa_offset 16
	movl	$__unnamed_1, %edi
	movl	$8, %esi
	callq	__asan_unregister_globals
	popq	%rax
	.cfi_def_cfa_offset 8
	retq
.Lfunc_end3:
	.size	asan.module_dtor, .Lfunc_end3-asan.module_dtor
	.cfi_endproc
                                        # -- End function
	.type	_ZStL8__ioinit,@object  # @_ZStL8__ioinit
	.local	_ZStL8__ioinit
	.comm	_ZStL8__ioinit,64,32
	.hidden	__dso_handle
	.type	.str,@object            # @.str
	.section	.rodata,"a",@progbits
	.p2align	5
.str:
	.asciz	"Hello, world!"
	.zero	50
	.size	.str, 64

	.type	public_data,@object     # @public_data
	.data
	.globl	public_data
	.p2align	5
public_data:
	.quad	.str
	.zero	56
	.size	public_data, 64

	.type	.str.1,@object          # @.str.1
	.section	.rodata,"a",@progbits
	.p2align	5
.str.1:
	.asciz	"It's a s3kr3t!!!"
	.zero	47
	.size	.str.1, 64

	.type	private_data,@object    # @private_data
	.data
	.globl	private_data
	.p2align	5
private_data:
	.quad	.str.1
	.zero	56
	.size	private_data, 64

	.type	.str.2,@object          # @.str.2
	.section	.rodata,"a",@progbits
	.p2align	5
.str.2:
	.asciz	"Leaking the string: "
	.zero	43
	.size	.str.2, 64

	.type	.str.3,@object          # @.str.3
	.p2align	5
.str.3:
	.asciz	"\nDone!\n"
	.zero	56
	.size	.str.3, 64

	.type	.str.4,@object          # @.str.4
	.p2align	5
.str.4:
	.asciz	"Does not converge"
	.zero	46
	.size	.str.4, 64

	.type	.L___asan_gen_,@object  # @___asan_gen_
	.section	.rodata.str1.1,"aMS",@progbits,1
.L___asan_gen_:
	.asciz	"2 32 1 10 __c.addr.i 48 32 17 timing_array.i:29"
	.size	.L___asan_gen_, 48

	.type	.L___asan_gen_.5,@object # @___asan_gen_.5
	.section	.rodata,"a",@progbits
.L___asan_gen_.5:
	.asciz	"spectre_v1_pht_sa.cc"
	.size	.L___asan_gen_.5, 21

	.type	.L___asan_gen_.6,@object # @___asan_gen_.6
	.section	.rodata.str1.1,"aMS",@progbits,1
.L___asan_gen_.6:
	.asciz	"std::__ioinit"
	.size	.L___asan_gen_.6, 14

	.type	.L___asan_gen_.7,@object # @___asan_gen_.7
.L___asan_gen_.7:
	.asciz	"/usr/lib/gcc/x86_64-linux-gnu/9/../../../../include/c++/9/iostream"
	.size	.L___asan_gen_.7, 67

	.type	.L___asan_gen_.8,@object # @___asan_gen_.8
	.section	.rodata,"a",@progbits
	.p2align	3
.L___asan_gen_.8:
	.quad	.L___asan_gen_.7
	.long	74                      # 0x4a
	.long	25                      # 0x19
	.size	.L___asan_gen_.8, 16

	.type	.L___asan_gen_.9,@object # @___asan_gen_.9
	.section	.rodata.str1.1,"aMS",@progbits,1
.L___asan_gen_.9:
	.asciz	"<string literal>"
	.size	.L___asan_gen_.9, 17

	.type	.L___asan_gen_.10,@object # @___asan_gen_.10
.L___asan_gen_.10:
	.asciz	"./local_content.h"
	.size	.L___asan_gen_.10, 18

	.type	.L___asan_gen_.11,@object # @___asan_gen_.11
	.section	.rodata,"a",@progbits
	.p2align	3
.L___asan_gen_.11:
	.quad	.L___asan_gen_.10
	.long	18                      # 0x12
	.long	27                      # 0x1b
	.size	.L___asan_gen_.11, 16

	.type	.L___asan_gen_.12,@object # @___asan_gen_.12
	.section	.rodata.str1.1,"aMS",@progbits,1
.L___asan_gen_.12:
	.asciz	"public_data"
	.size	.L___asan_gen_.12, 12

	.type	.L___asan_gen_.13,@object # @___asan_gen_.13
.L___asan_gen_.13:
	.asciz	"./local_content.h"
	.size	.L___asan_gen_.13, 18

	.type	.L___asan_gen_.14,@object # @___asan_gen_.14
	.section	.rodata,"a",@progbits
	.p2align	3
.L___asan_gen_.14:
	.quad	.L___asan_gen_.13
	.long	18                      # 0x12
	.long	13                      # 0xd
	.size	.L___asan_gen_.14, 16

	.type	.L___asan_gen_.15,@object # @___asan_gen_.15
	.section	.rodata.str1.1,"aMS",@progbits,1
.L___asan_gen_.15:
	.asciz	"<string literal>"
	.size	.L___asan_gen_.15, 17

	.type	.L___asan_gen_.16,@object # @___asan_gen_.16
.L___asan_gen_.16:
	.asciz	"./local_content.h"
	.size	.L___asan_gen_.16, 18

	.type	.L___asan_gen_.17,@object # @___asan_gen_.17
	.section	.rodata,"a",@progbits
	.p2align	3
.L___asan_gen_.17:
	.quad	.L___asan_gen_.16
	.long	19                      # 0x13
	.long	28                      # 0x1c
	.size	.L___asan_gen_.17, 16

	.type	.L___asan_gen_.18,@object # @___asan_gen_.18
	.section	.rodata.str1.1,"aMS",@progbits,1
.L___asan_gen_.18:
	.asciz	"private_data"
	.size	.L___asan_gen_.18, 13

	.type	.L___asan_gen_.19,@object # @___asan_gen_.19
.L___asan_gen_.19:
	.asciz	"./local_content.h"
	.size	.L___asan_gen_.19, 18

	.type	.L___asan_gen_.20,@object # @___asan_gen_.20
	.section	.rodata,"a",@progbits
	.p2align	3
.L___asan_gen_.20:
	.quad	.L___asan_gen_.19
	.long	19                      # 0x13
	.long	13                      # 0xd
	.size	.L___asan_gen_.20, 16

	.type	.L___asan_gen_.21,@object # @___asan_gen_.21
	.section	.rodata.str1.1,"aMS",@progbits,1
.L___asan_gen_.21:
	.asciz	"<string literal>"
	.size	.L___asan_gen_.21, 17

	.type	.L___asan_gen_.22,@object # @___asan_gen_.22
.L___asan_gen_.22:
	.asciz	"spectre_v1_pht_sa.cc"
	.size	.L___asan_gen_.22, 21

	.type	.L___asan_gen_.23,@object # @___asan_gen_.23
	.section	.rodata,"a",@progbits
	.p2align	3
.L___asan_gen_.23:
	.quad	.L___asan_gen_.22
	.long	86                      # 0x56
	.long	16                      # 0x10
	.size	.L___asan_gen_.23, 16

	.type	.L___asan_gen_.24,@object # @___asan_gen_.24
	.section	.rodata.str1.1,"aMS",@progbits,1
.L___asan_gen_.24:
	.asciz	"<string literal>"
	.size	.L___asan_gen_.24, 17

	.type	.L___asan_gen_.25,@object # @___asan_gen_.25
.L___asan_gen_.25:
	.asciz	"spectre_v1_pht_sa.cc"
	.size	.L___asan_gen_.25, 21

	.type	.L___asan_gen_.26,@object # @___asan_gen_.26
	.section	.rodata,"a",@progbits
	.p2align	3
.L___asan_gen_.26:
	.quad	.L___asan_gen_.25
	.long	96                      # 0x60
	.long	16                      # 0x10
	.size	.L___asan_gen_.26, 16

	.type	.L___asan_gen_.27,@object # @___asan_gen_.27
	.section	.rodata.str1.1,"aMS",@progbits,1
.L___asan_gen_.27:
	.asciz	"<string literal>"
	.size	.L___asan_gen_.27, 17

	.type	.L___asan_gen_.28,@object # @___asan_gen_.28
.L___asan_gen_.28:
	.asciz	"spectre_v1_pht_sa.cc"
	.size	.L___asan_gen_.28, 21

	.type	.L___asan_gen_.29,@object # @___asan_gen_.29
	.section	.rodata,"a",@progbits
	.p2align	3
.L___asan_gen_.29:
	.quad	.L___asan_gen_.28
	.long	79                      # 0x4f
	.long	20                      # 0x14
	.size	.L___asan_gen_.29, 16

	.type	__unnamed_1,@object     # @0
	.data
	.p2align	4
__unnamed_1:
	.quad	_ZStL8__ioinit
	.quad	1                       # 0x1
	.quad	64                      # 0x40
	.quad	.L___asan_gen_.6
	.quad	.L___asan_gen_.5
	.quad	1                       # 0x1
	.quad	.L___asan_gen_.8
	.quad	0                       # 0x0
	.quad	.str
	.quad	14                      # 0xe
	.quad	64                      # 0x40
	.quad	.L___asan_gen_.9
	.quad	.L___asan_gen_.5
	.quad	0                       # 0x0
	.quad	.L___asan_gen_.11
	.quad	0                       # 0x0
	.quad	public_data
	.quad	8                       # 0x8
	.quad	64                      # 0x40
	.quad	.L___asan_gen_.12
	.quad	.L___asan_gen_.5
	.quad	0                       # 0x0
	.quad	.L___asan_gen_.14
	.quad	0                       # 0x0
	.quad	.str.1
	.quad	17                      # 0x11
	.quad	64                      # 0x40
	.quad	.L___asan_gen_.15
	.quad	.L___asan_gen_.5
	.quad	0                       # 0x0
	.quad	.L___asan_gen_.17
	.quad	0                       # 0x0
	.quad	private_data
	.quad	8                       # 0x8
	.quad	64                      # 0x40
	.quad	.L___asan_gen_.18
	.quad	.L___asan_gen_.5
	.quad	0                       # 0x0
	.quad	.L___asan_gen_.20
	.quad	0                       # 0x0
	.quad	.str.2
	.quad	21                      # 0x15
	.quad	64                      # 0x40
	.quad	.L___asan_gen_.21
	.quad	.L___asan_gen_.5
	.quad	0                       # 0x0
	.quad	.L___asan_gen_.23
	.quad	0                       # 0x0
	.quad	.str.3
	.quad	8                       # 0x8
	.quad	64                      # 0x40
	.quad	.L___asan_gen_.24
	.quad	.L___asan_gen_.5
	.quad	0                       # 0x0
	.quad	.L___asan_gen_.26
	.quad	0                       # 0x0
	.quad	.str.4
	.quad	18                      # 0x12
	.quad	64                      # 0x40
	.quad	.L___asan_gen_.27
	.quad	.L___asan_gen_.5
	.quad	0                       # 0x0
	.quad	.L___asan_gen_.29
	.quad	0                       # 0x0
	.size	__unnamed_1, 512

	.section	.init_array.1,"aw",@init_array
	.p2align	3
	.quad	asan.module_ctor
	.section	.init_array,"aw",@init_array
	.p2align	3
	.quad	_GLOBAL__sub_I_spectre_v1_pht_sa.cc
	.section	.fini_array.1,"aw",@fini_array
	.p2align	3
	.quad	asan.module_dtor
	.section	".note.GNU-stack","",@progbits