	.text
	.file	"timing_array.cc"
	.file	1 "/usr/local/google/home/zbrid/sanitizer/llvm-install/llvm-7.0.1/build/lib/clang/7.0.1/include/stddef.h"
	.file	2 "/usr/local/google/home/zbrid/sanitizer/safeside/demos/spectre_v1/./timing_array.h"
	.file	3 "/usr/include/x86_64-linux-gnu/bits/types.h"
	.file	4 "/usr/include/x86_64-linux-gnu/bits/stdint-uintn.h"
	.file	5 "/usr/lib/gcc/x86_64-linux-gnu/9/../../../../include/c++/9/bits/alloc_traits.h"
	.file	6 "/usr/lib/gcc/x86_64-linux-gnu/9/../../../../include/c++/9/array"
	.file	7 "/usr/lib/gcc/x86_64-linux-gnu/9/../../../../include/x86_64-linux-gnu/c++/9/bits/c++config.h"
	.file	8 "/usr/lib/gcc/x86_64-linux-gnu/9/../../../../include/c++/9/ext/new_allocator.h"
	.file	9 "/usr/lib/gcc/x86_64-linux-gnu/9/../../../../include/x86_64-linux-gnu/c++/9/bits/c++allocator.h"
	.file	10 "/usr/lib/gcc/x86_64-linux-gnu/9/../../../../include/c++/9/bits/allocator.h"
	.file	11 "/usr/lib/gcc/x86_64-linux-gnu/9/../../../../include/c++/9/ext/alloc_traits.h"
	.file	12 "/usr/lib/gcc/x86_64-linux-gnu/9/../../../../include/c++/9/bits/stl_vector.h"
	.file	13 "/usr/lib/gcc/x86_64-linux-gnu/9/../../../../include/c++/9/type_traits"
	.file	14 "/usr/local/google/home/zbrid/sanitizer/safeside/demos/spectre_v1/timing_array.cc"
	.file	15 "/usr/lib/gcc/x86_64-linux-gnu/9/../../../../include/c++/9/limits"
	.file	16 "/usr/lib/gcc/x86_64-linux-gnu/9/../../../../include/c++/9/bits/stl_algo.h"
	.file	17 "/usr/lib/gcc/x86_64-linux-gnu/9/../../../../include/c++/9/bits/cpp_type_traits.h"
	.file	18 "/usr/lib/gcc/x86_64-linux-gnu/9/../../../../include/c++/9/bits/stl_iterator.h"
	.file	19 "/usr/lib/gcc/x86_64-linux-gnu/9/../../../../include/c++/9/bits/stl_iterator_base_types.h"
	.file	20 "/usr/lib/gcc/x86_64-linux-gnu/9/../../../../include/c++/9/bits/stl_heap.h"
	.file	21 "/usr/lib/gcc/x86_64-linux-gnu/9/../../../../include/c++/9/ext/numeric_traits.h"
	.file	22 "/usr/lib/gcc/x86_64-linux-gnu/9/../../../../include/c++/9/bits/exception_ptr.h"
	.file	23 "/usr/lib/gcc/x86_64-linux-gnu/9/../../../../include/c++/9/debug/debug.h"
	.file	24 "/usr/include/x86_64-linux-gnu/bits/types/__mbstate_t.h"
	.file	25 "/usr/include/x86_64-linux-gnu/bits/types/mbstate_t.h"
	.file	26 "/usr/lib/gcc/x86_64-linux-gnu/9/../../../../include/c++/9/cwchar"
	.file	27 "/usr/include/x86_64-linux-gnu/bits/types/wint_t.h"
	.file	28 "/usr/include/wchar.h"
	.file	29 "/usr/include/x86_64-linux-gnu/bits/types/struct_FILE.h"
	.file	30 "/usr/include/x86_64-linux-gnu/bits/types/__FILE.h"
	.file	31 "/usr/include/x86_64-linux-gnu/bits/stdint-intn.h"
	.file	32 "/usr/lib/gcc/x86_64-linux-gnu/9/../../../../include/c++/9/cstdint"
	.file	33 "/usr/include/stdint.h"
	.file	34 "/usr/lib/gcc/x86_64-linux-gnu/9/../../../../include/c++/9/clocale"
	.file	35 "/usr/include/locale.h"
	.file	36 "/usr/include/ctype.h"
	.file	37 "/usr/lib/gcc/x86_64-linux-gnu/9/../../../../include/c++/9/cctype"
	.file	38 "/usr/include/stdlib.h"
	.file	39 "/usr/lib/gcc/x86_64-linux-gnu/9/../../../../include/c++/9/bits/std_abs.h"
	.file	40 "/usr/lib/gcc/x86_64-linux-gnu/9/../../../../include/c++/9/cstdlib"
	.file	41 "/usr/include/x86_64-linux-gnu/bits/stdlib-float.h"
	.file	42 "/usr/include/x86_64-linux-gnu/bits/stdlib-bsearch.h"
	.file	43 "/usr/include/x86_64-linux-gnu/bits/types/FILE.h"
	.file	44 "/usr/lib/gcc/x86_64-linux-gnu/9/../../../../include/c++/9/cstdio"
	.file	45 "/usr/include/x86_64-linux-gnu/bits/types/__fpos_t.h"
	.file	46 "/usr/include/stdio.h"
	.file	47 "/usr/include/x86_64-linux-gnu/bits/stdio.h"
	.file	48 "/usr/local/google/home/zbrid/sanitizer/llvm-install/llvm-7.0.1/build/lib/clang/7.0.1/include/__stddef_max_align_t.h"
	.file	49 "/usr/lib/gcc/x86_64-linux-gnu/9/../../../../include/c++/9/cstddef"
	.file	50 "/usr/include/string.h"
	.file	51 "/usr/lib/gcc/x86_64-linux-gnu/9/../../../../include/c++/9/cstring"
	.file	52 "/usr/lib/gcc/x86_64-linux-gnu/9/../../../../include/c++/9/stdlib.h"
	.globl	_ZN11TimingArrayC2Ev    # -- Begin function _ZN11TimingArrayC2Ev
	.p2align	4, 0x90
	.type	_ZN11TimingArrayC2Ev,@function
_ZN11TimingArrayC2Ev:                   # @_ZN11TimingArrayC2Ev
.Lfunc_begin0:
	.loc	14 21 0                 # timing_array.cc:21:0
	.cfi_startproc
	.cfi_personality 3, __gxx_personality_v0
	.cfi_lsda 3, .Lexception0
# %bb.0:                                # %entry
	nopl	42(%rbx)
	subq	$12, instruction_counter
	movq	%rsp, current_rsp
	movq	%r15, tmp_gpr1
	leaq	-8(%rsp), %r15
	movq	checkpoint_sp, %rsp
	pushq	%r15
	pushq	(%r15)
	movq	%rsp, checkpoint_sp
	movq	tmp_gpr1, %r15
	movq	current_rsp, %rsp
	pushq	%rbp
	.cfi_def_cfa_offset 16
	.cfi_offset %rbp, -16
	movq	%rsp, %rbp
	.cfi_def_cfa_register %rbp
	movq	%rsp, current_rsp
	movq	%r15, tmp_gpr1
	leaq	-8(%rsp), %r15
	movq	checkpoint_sp, %rsp
	pushq	%r15
	pushq	(%r15)
	movq	%rsp, checkpoint_sp
	movq	tmp_gpr1, %r15
	movq	current_rsp, %rsp
	pushq	%r15
	movq	%rsp, current_rsp
	movq	%r15, tmp_gpr1
	leaq	-8(%rsp), %r15
	movq	checkpoint_sp, %rsp
	pushq	%r15
	pushq	(%r15)
	movq	%rsp, checkpoint_sp
	movq	tmp_gpr1, %r15
	movq	current_rsp, %rsp
	pushq	%r14
	movq	%rsp, current_rsp
	movq	%r15, tmp_gpr1
	leaq	-8(%rsp), %r15
	movq	checkpoint_sp, %rsp
	pushq	%r15
	pushq	(%r15)
	movq	%rsp, checkpoint_sp
	movq	tmp_gpr1, %r15
	movq	current_rsp, %rsp
	pushq	%r13
	movq	%rsp, current_rsp
	movq	%r15, tmp_gpr1
	leaq	-8(%rsp), %r15
	movq	checkpoint_sp, %rsp
	pushq	%r15
	pushq	(%r15)
	movq	%rsp, checkpoint_sp
	movq	tmp_gpr1, %r15
	movq	current_rsp, %rsp
	pushq	%r12
	movq	%rsp, current_rsp
	movq	%r15, tmp_gpr1
	leaq	-8(%rsp), %r15
	movq	checkpoint_sp, %rsp
	pushq	%r15
	pushq	(%r15)
	movq	%rsp, checkpoint_sp
	movq	tmp_gpr1, %r15
	movq	current_rsp, %rsp
	pushq	%rbx
	andq	$-64, %rsp
	subq	$128, %rsp
	movq	%rsp, %rbx
	.cfi_offset %rbx, -56
	.cfi_offset %r12, -48
	.cfi_offset %r13, -40
	.cfi_offset %r14, -32
	.cfi_offset %r15, -24
	#DEBUG_VALUE: TimingArray:this <- $rdi
.Ltmp6:
	#DEBUG_VALUE: ElementAt:this <- $rdi
	#DEBUG_VALUE: operator[]:this <- $rdi
	movq	%rdi, %r15
.Ltmp7:
	#DEBUG_VALUE: operator[]:this <- $r15
	#DEBUG_VALUE: ElementAt:this <- $r15
	#DEBUG_VALUE: TimingArray:this <- $r15
	.loc	14 21 0 prologue_end    # timing_array.cc:21:0
	cmpl	$0, __asan_option_detect_stack_use_after_return(%rip)
	movq	%rsp, current_rsp
	leaq	specfuzz_rtl_frame, %rsp
	callq	specfuzz_chkp
	movq	current_rsp, %rsp
	jmp	.LBB0_25
	jne	.LBB0_1
	jmp	.LBB0_2
.Ltmp8:
.LBB0_25:                               # %entry
	.loc	14 0 0 is_stmt 0        # timing_array.cc:0:0
	je	.LBB0_1
.LBB0_2:
.Ltmp9:
	#DEBUG_VALUE: TimingArray:this <- $r15
	.loc	14 21 0                 # timing_array.cc:21:0
	subq	$5, instruction_counter
	movl	$4480, %edi             # imm = 0x1180
	movq	%rsp, current_rsp
	leaq	specfuzz_rtl_frame, %rsp
	callq	specfuzz_rlbk_external_call
	movq	current_rsp, %rsp
	addw	$1, disable_speculation
	callq	__asan_stack_malloc_7
	subw	$1, disable_speculation
	movq	%rax, %r13
	movq	%rsp, current_rsp
	movq	%r15, tmp_gpr1
	leaq	(%rbx), %r15
.Ltmp10:
	.loc	14 0 0                  # timing_array.cc:0:0
	movq	checkpoint_sp, %rsp
	pushq	%r15
	pushq	(%r15)
	movq	%rsp, checkpoint_sp
	movq	tmp_gpr1, %r15
	movq	current_rsp, %rsp
	movq	%rax, (%rbx)            # 8-byte Spill
	.loc	14 21 0                 # timing_array.cc:21:0
	testq	%rax, %rax
	movq	%rsp, current_rsp
	leaq	specfuzz_rtl_frame, %rsp
	callq	specfuzz_chkp
	movq	current_rsp, %rsp
	jmp	.LBB0_26
	je	.LBB0_5
	jmp	.LBB0_4
.LBB0_26:
	.loc	14 0 0                  # timing_array.cc:0:0
	jne	.LBB0_5
.LBB0_4:
.Ltmp11:
	#DEBUG_VALUE: TimingArray:this <- $r15
	.loc	14 21 0                 # timing_array.cc:21:0
	subq	$4, instruction_counter
	movq	%rsp, %r13
	addq	$-4480, %r13            # imm = 0xEE80
	andq	$-64, %r13
	movq	%r13, %rsp
.Ltmp12:
.LBB0_5:
	#DEBUG_VALUE: TimingArray:this <- $r15
	subq	$11, instruction_counter
	movq	%rsp, current_rsp
	movq	%r15, tmp_gpr1
	leaq	56(%rbx), %r15
.Ltmp13:
	movq	checkpoint_sp, %rsp
	pushq	%r15
	pushq	(%r15)
	movq	%rsp, checkpoint_sp
	movq	tmp_gpr1, %r15
	movq	current_rsp, %rsp
	movq	%r13, 56(%rbx)
	movq	%rsp, current_rsp
	movq	%r15, tmp_gpr1
	leaq	(%r13), %r15
	movq	checkpoint_sp, %rsp
	pushq	%r15
	pushq	(%r15)
	movq	%rsp, checkpoint_sp
	movq	tmp_gpr1, %r15
	movq	current_rsp, %rsp
	movq	$1102416563, (%r13)     # imm = 0x41B58AB3
	movq	%rsp, current_rsp
	movq	%r15, tmp_gpr1
	leaq	8(%r13), %r15
	movq	checkpoint_sp, %rsp
	pushq	%r15
	pushq	(%r15)
	movq	%rsp, checkpoint_sp
	movq	tmp_gpr1, %r15
	movq	current_rsp, %rsp
	movq	$.L___asan_gen_, 8(%r13)
	movq	%rsp, current_rsp
	movq	%r15, tmp_gpr1
	leaq	16(%r13), %r15
	movq	checkpoint_sp, %rsp
	pushq	%r15
	pushq	(%r15)
	movq	%rsp, checkpoint_sp
	movq	tmp_gpr1, %r15
	movq	current_rsp, %rsp
	movq	$_ZN11TimingArrayC2Ev, 16(%r13)
	movq	%r13, %r14
	shrq	$3, %r14
	movabsq	$-1012762419733073423, %rax # imm = 0xF1F1F1F1F1F1F1F1
	movq	%rsp, current_rsp
	movq	%r15, tmp_gpr1
	leaq	2147450880(%r14), %r15
	movq	checkpoint_sp, %rsp
	pushq	%r15
	pushq	(%r15)
	movq	%rsp, checkpoint_sp
	movq	tmp_gpr1, %r15
	movq	current_rsp, %rsp
	movq	%rax, 2147450880(%r14)
	leaq	2147450888(%r14), %rdi
	movl	$520, %esi              # imm = 0x208
	movq	%rsp, current_rsp
	leaq	specfuzz_rtl_frame, %rsp
	callq	specfuzz_rlbk_external_call
	movq	current_rsp, %rsp
	addw	$1, disable_speculation
	callq	__asan_set_shadow_f8
	subw	$1, disable_speculation
	movabsq	$-868082074056920077, %rax # imm = 0xF3F3F3F3F3F3F3F3
	movq	%rsp, current_rsp
	movq	%r15, tmp_gpr1
	leaq	2147451408(%r14), %r15
	movq	checkpoint_sp, %rsp
	pushq	%r15
	pushq	(%r15)
	movq	%rsp, checkpoint_sp
	movq	tmp_gpr1, %r15
	movq	current_rsp, %rsp
	movq	%rax, 2147451408(%r14)
	movq	%rsp, current_rsp
	movq	%r15, tmp_gpr1
	leaq	2147451416(%r14), %r15
	movq	checkpoint_sp, %rsp
	pushq	%r15
	pushq	(%r15)
	movq	%rsp, checkpoint_sp
	movq	tmp_gpr1, %r15
	movq	current_rsp, %rsp
	movq	%rax, 2147451416(%r14)
	movq	%rsp, current_rsp
	movq	%r15, tmp_gpr1
	leaq	2147451424(%r14), %r15
	movq	checkpoint_sp, %rsp
	pushq	%r15
	pushq	(%r15)
	movq	%rsp, checkpoint_sp
	movq	tmp_gpr1, %r15
	movq	current_rsp, %rsp
	movq	%rax, 2147451424(%r14)
	movq	%rsp, current_rsp
	movq	%r15, tmp_gpr1
	leaq	2147451432(%r14), %r15
	movq	checkpoint_sp, %rsp
	pushq	%r15
	pushq	(%r15)
	movq	%rsp, checkpoint_sp
	movq	tmp_gpr1, %r15
	movq	current_rsp, %rsp
	movq	%rax, 2147451432(%r14)
	movq	%rsp, current_rsp
	leaq	specfuzz_rtl_frame, %rsp
	callq	specfuzz_rlbk_if_done
	movq	current_rsp, %rsp
	subq	$20, instruction_counter
	leaq	2147450880(%r14), %rax
	movq	%rsp, current_rsp
	movq	%r15, tmp_gpr1
	leaq	8(%rbx), %r15
	movq	checkpoint_sp, %rsp
	pushq	%r15
	pushq	(%r15)
	movq	%rsp, checkpoint_sp
	movq	tmp_gpr1, %r15
	movq	current_rsp, %rsp
	movq	%rax, 8(%rbx)           # 8-byte Spill
	.loc	2 164 24 is_stmt 1      # ./timing_array.h:164:24
	leaq	8(%r15), %r14
.Ltmp14:
	#DEBUG_VALUE: _Vector_impl:__a <- undef
	#DEBUG_VALUE: _Vector_base:__a <- undef
	#DEBUG_VALUE: _Vector_base:__n <- 258
	#DEBUG_VALUE: vector:__a <- undef
	#DEBUG_VALUE: vector:__n <- 258
	#DEBUG_VALUE: _Vector_impl_data:this <- $r14
	#DEBUG_VALUE: _Vector_impl:this <- $r14
	#DEBUG_VALUE: _Vector_base:this <- $r14
	#DEBUG_VALUE: vector:this <- $r14
	#DEBUG_VALUE: _M_default_initialize:this <- $r14
	#DEBUG_VALUE: __uninitialized_default_n_a<TimingArray::Element *, unsigned long, TimingArray::Element>: <- $r14
	#DEBUG_VALUE: ~vector:this <- $r14
	#DEBUG_VALUE: ~_Vector_base:this <- $r14
	#DEBUG_VALUE: _M_deallocate:this <- $r14
	#DEBUG_VALUE: deallocate:__a <- $r14
	#DEBUG_VALUE: deallocate:this <- $r14
	.loc	12 95 16                # /usr/lib/gcc/x86_64-linux-gnu/9/../../../../include/c++/9/bits/stl_vector.h:95:16
	xorl	%esi, %esi
	movl	$24, %edx
	movq	%r14, %rdi
	movq	%rsp, current_rsp
	leaq	specfuzz_rtl_frame, %rsp
	callq	specfuzz_rlbk_external_call
	movq	current_rsp, %rsp
	addw	$1, disable_speculation
	callq	__asan_memset
	subw	$1, disable_speculation
.Ltmp15:
.Ltmp0:
	#DEBUG_VALUE: allocate:__n <- 258
	#DEBUG_VALUE: allocate:__n <- 258
	#DEBUG_VALUE: _M_allocate:__n <- 258
	#DEBUG_VALUE: _M_create_storage:__n <- 258
	#DEBUG_VALUE: _M_create_storage:this <- $r14
	#DEBUG_VALUE: _M_allocate:this <- $r14
	#DEBUG_VALUE: allocate:__a <- $r14
	#DEBUG_VALUE: allocate:this <- $r14
	.loc	8 114 27                # /usr/lib/gcc/x86_64-linux-gnu/9/../../../../include/c++/9/ext/new_allocator.h:114:27
	movl	$1073280, %edi          # imm = 0x106080
	movq	%rsp, current_rsp
	movq	%r15, tmp_gpr1
	leaq	24(%rbx), %r15
	movq	checkpoint_sp, %rsp
	pushq	%r15
	pushq	(%r15)
	movq	%rsp, checkpoint_sp
	movq	tmp_gpr1, %r15
	movq	current_rsp, %rsp
	movq	%r13, 24(%rbx)          # 8-byte Spill
	movq	%rsp, current_rsp
	leaq	specfuzz_rtl_frame, %rsp
	callq	specfuzz_rlbk_external_call
	movq	current_rsp, %rsp
	addw	$1, disable_speculation
	callq	_Znwm
	subw	$1, disable_speculation
.Ltmp1:
.Ltmp16:
# %bb.6:                                # %call2.i.i.i.i3.i.i.noexc
	#DEBUG_VALUE: _M_create_storage:this <- $r14
	#DEBUG_VALUE: __uninitialized_default_n_a<TimingArray::Element *, unsigned long, TimingArray::Element>: <- $r14
	#DEBUG_VALUE: _M_default_initialize:this <- $r14
	#DEBUG_VALUE: vector:this <- $r14
	#DEBUG_VALUE: _Vector_base:this <- $r14
	#DEBUG_VALUE: TimingArray:this <- $r15
	.loc	8 0 27 is_stmt 0        # /usr/lib/gcc/x86_64-linux-gnu/9/../../../../include/c++/9/ext/new_allocator.h:0:27
	subq	$10, instruction_counter
	movq	%rax, %r12
	leaq	64(%r13), %r13
	movq	%rsp, current_rsp
	movq	%r15, tmp_gpr1
	leaq	16(%rbx), %r15
.Ltmp17:
	movq	checkpoint_sp, %rsp
	pushq	%r15
	pushq	(%r15)
	movq	%rsp, checkpoint_sp
	movq	tmp_gpr1, %r15
	movq	current_rsp, %rsp
	movq	%r14, 16(%rbx)          # 8-byte Spill
.Ltmp18:
	#DEBUG_VALUE: _Vector_base:this <- [DW_OP_plus_uconst 16] [$rbx+0]
	.loc	12 358 25 is_stmt 1     # /usr/lib/gcc/x86_64-linux-gnu/9/../../../../include/c++/9/bits/stl_vector.h:358:25
	movq	%r14, %rdi
	movq	%rsp, current_rsp
	leaq	asan_rtl_frame, %rsp
	callq	__asan_store8
	movq	current_rsp, %rsp
	movq	%rsp, current_rsp
	movq	%r15, tmp_gpr1
	leaq	8(%r15), %r15
	movq	checkpoint_sp, %rsp
	pushq	%r15
	pushq	(%r15)
	movq	%rsp, checkpoint_sp
	movq	tmp_gpr1, %r15
	movq	current_rsp, %rsp
	movq	%r12, 8(%r15)
	.loc	12 359 16               # /usr/lib/gcc/x86_64-linux-gnu/9/../../../../include/c++/9/bits/stl_vector.h:359:16
	leaq	16(%r15), %rdi
	movq	%rsp, current_rsp
	movq	%r15, tmp_gpr1
	leaq	48(%rbx), %r15
	movq	checkpoint_sp, %rsp
	pushq	%r15
	pushq	(%r15)
	movq	%rsp, checkpoint_sp
	movq	tmp_gpr1, %r15
	movq	current_rsp, %rsp
	movq	%rdi, 48(%rbx)          # 8-byte Spill
	.loc	12 359 26 is_stmt 0     # /usr/lib/gcc/x86_64-linux-gnu/9/../../../../include/c++/9/bits/stl_vector.h:359:26
	movq	%rsp, current_rsp
	leaq	asan_rtl_frame, %rsp
	callq	__asan_store8
	movq	current_rsp, %rsp
	movq	%rsp, current_rsp
	movq	%r15, tmp_gpr1
	leaq	16(%r15), %r15
	movq	checkpoint_sp, %rsp
	pushq	%r15
	pushq	(%r15)
	movq	%rsp, checkpoint_sp
	movq	tmp_gpr1, %r15
	movq	current_rsp, %rsp
	movq	%r12, 16(%r15)
	.loc	12 360 59 is_stmt 1     # /usr/lib/gcc/x86_64-linux-gnu/9/../../../../include/c++/9/bits/stl_vector.h:360:59
	movq	%rsp, current_rsp
	leaq	specfuzz_rtl_frame, %rsp
	callq	specfuzz_rlbk_if_done
	movq	current_rsp, %rsp
	subq	$15, instruction_counter
	leaq	1073280(%r12), %r14
.Ltmp19:
	#DEBUG_VALUE: __fill_n_a<TimingArray::Element *, unsigned long, TimingArray::Element>:__first <- $r14
	.loc	12 360 16 is_stmt 0     # /usr/lib/gcc/x86_64-linux-gnu/9/../../../../include/c++/9/bits/stl_vector.h:360:16
	leaq	24(%r15), %rdi
	.loc	12 360 34               # /usr/lib/gcc/x86_64-linux-gnu/9/../../../../include/c++/9/bits/stl_vector.h:360:34
	movq	%rsp, current_rsp
	leaq	asan_rtl_frame, %rsp
	callq	__asan_store8
	movq	current_rsp, %rsp
	movq	%rsp, current_rsp
	movq	%r15, tmp_gpr1
	leaq	40(%rbx), %r15
	movq	checkpoint_sp, %rsp
	pushq	%r15
	pushq	(%r15)
	movq	%rsp, checkpoint_sp
	movq	tmp_gpr1, %r15
	movq	current_rsp, %rsp
	movq	%r14, 40(%rbx)          # 8-byte Spill
.Ltmp20:
	#DEBUG_VALUE: __fill_n_a<TimingArray::Element *, unsigned long, TimingArray::Element>:__first <- [DW_OP_plus_uconst 40] [$rbx+0]
	movq	%rsp, current_rsp
	movq	%r15, tmp_gpr1
	leaq	24(%r15), %r15
	movq	checkpoint_sp, %rsp
	pushq	%r15
	pushq	(%r15)
	movq	%rsp, checkpoint_sp
	movq	tmp_gpr1, %r15
	movq	current_rsp, %rsp
	movq	%r14, 24(%r15)
.Ltmp21:
	.file	53 "/usr/lib/gcc/x86_64-linux-gnu/9/../../../../include/c++/9/bits/stl_uninitialized.h"
	.loc	53 566 37 is_stmt 1     # /usr/lib/gcc/x86_64-linux-gnu/9/../../../../include/c++/9/bits/stl_uninitialized.h:566:37
	movq	8(%rbx), %rax           # 8-byte Reload
.Ltmp22:
	#DEBUG_VALUE: __uninit_default_n<TimingArray::Element *, unsigned long>:__n <- 258
	#DEBUG_VALUE: __uninitialized_default_n<TimingArray::Element *, unsigned long>:__assignable <- 1
	#DEBUG_VALUE: __uninitialized_default_n<TimingArray::Element *, unsigned long>:__n <- 258
	#DEBUG_VALUE: __uninitialized_default_n_a<TimingArray::Element *, unsigned long, TimingArray::Element>:__n <- 258
	#DEBUG_VALUE: _M_default_initialize:__n <- 258
	leaq	8(%rax), %rdi
	movl	$520, %esi              # imm = 0x208
	movq	%rsp, current_rsp
	movq	%r15, tmp_gpr1
	leaq	32(%rbx), %r15
	movq	checkpoint_sp, %rsp
	pushq	%r15
	pushq	(%r15)
	movq	%rsp, checkpoint_sp
	movq	tmp_gpr1, %r15
	movq	current_rsp, %rsp
	movq	%rdi, 32(%rbx)          # 8-byte Spill
	movq	%rsp, current_rsp
	leaq	specfuzz_rtl_frame, %rsp
	callq	specfuzz_rlbk_external_call
	movq	current_rsp, %rsp
	addw	$1, disable_speculation
	callq	__asan_set_shadow_00
	subw	$1, disable_speculation
	xorl	%r14d, %r14d
	xorl	%esi, %esi
	movl	$4160, %edx             # imm = 0x1040
	movq	%r13, %rdi
	movq	%rsp, current_rsp
	leaq	specfuzz_rtl_frame, %rsp
	callq	specfuzz_rlbk_external_call
	movq	current_rsp, %rsp
	addw	$1, disable_speculation
	callq	__asan_memset
	subw	$1, disable_speculation
.Ltmp23:
	#DEBUG_VALUE: __niter <- 258
	#DEBUG_VALUE: __fill_n_a<TimingArray::Element *, unsigned long, TimingArray::Element>:__value <- undef
	#DEBUG_VALUE: __fill_n_a<TimingArray::Element *, unsigned long, TimingArray::Element>:__n <- 258
	#DEBUG_VALUE: fill_n<TimingArray::Element *, unsigned long, TimingArray::Element>:__value <- undef
	#DEBUG_VALUE: fill_n<TimingArray::Element *, unsigned long, TimingArray::Element>:__n <- 258
	.p2align	4, 0x90
.LBB0_7:                                # %for.body.i.i.i.i.i.i.i
                                        # =>This Inner Loop Header: Depth=1
	#DEBUG_VALUE: __fill_n_a<TimingArray::Element *, unsigned long, TimingArray::Element>:__first <- [DW_OP_plus_uconst 40] [$rbx+0]
	#DEBUG_VALUE: TimingArray:this <- $r15
	#DEBUG_VALUE: __niter <- undef
	.file	54 "/usr/lib/gcc/x86_64-linux-gnu/9/../../../../include/c++/9/bits/stl_algobase.h"
	.loc	54 760 11               # /usr/lib/gcc/x86_64-linux-gnu/9/../../../../include/c++/9/bits/stl_algobase.h:760:11
	subq	$1, instruction_counter
	leaq	(%r12,%r14), %rdi
	movq	%rsp, current_rsp
	leaq	specfuzz_rtl_frame, %rsp
	callq	specfuzz_rlbk_if_done
	movq	current_rsp, %rsp
	subq	$15, instruction_counter
	movl	$4160, %edx             # imm = 0x1040
	movq	%r13, %rsi
	movq	%rsp, current_rsp
	leaq	specfuzz_rtl_frame, %rsp
	callq	specfuzz_rlbk_external_call
	movq	current_rsp, %rsp
	addw	$1, disable_speculation
	callq	__asan_memcpy
	subw	$1, disable_speculation
.Ltmp24:
	#DEBUG_VALUE: __niter <- [DW_OP_constu 1, DW_OP_minus, DW_OP_stack_value] undef
	leaq	(%r12,%r14), %rdi
	addq	$4160, %rdi             # imm = 0x1040
	movl	$4160, %edx             # imm = 0x1040
	movq	%r13, %rsi
	movq	%rsp, current_rsp
	leaq	specfuzz_rtl_frame, %rsp
	callq	specfuzz_rlbk_external_call
	movq	current_rsp, %rsp
	addw	$1, disable_speculation
	callq	__asan_memcpy
	subw	$1, disable_speculation
.Ltmp25:
	#DEBUG_VALUE: __niter <- [DW_OP_constu 2, DW_OP_minus, DW_OP_stack_value] undef
	leaq	(%r12,%r14), %rdi
	addq	$8320, %rdi             # imm = 0x2080
	movl	$4160, %edx             # imm = 0x1040
	movq	%r13, %rsi
	movq	%rsp, current_rsp
	leaq	specfuzz_rtl_frame, %rsp
	callq	specfuzz_rlbk_external_call
	movq	current_rsp, %rsp
	addw	$1, disable_speculation
	callq	__asan_memcpy
	subw	$1, disable_speculation
.Ltmp26:
	#DEBUG_VALUE: __niter <- [DW_OP_constu 3, DW_OP_minus, DW_OP_stack_value] undef
	leaq	(%r12,%r14), %rdi
	addq	$12480, %rdi            # imm = 0x30C0
	movl	$4160, %edx             # imm = 0x1040
	movq	%rsp, current_rsp
	leaq	specfuzz_rtl_frame, %rsp
	callq	specfuzz_rlbk_if_done
	movq	current_rsp, %rsp
	subq	$15, instruction_counter
	movq	%r13, %rsi
	movq	%rsp, current_rsp
	leaq	specfuzz_rtl_frame, %rsp
	callq	specfuzz_rlbk_external_call
	movq	current_rsp, %rsp
	addw	$1, disable_speculation
	callq	__asan_memcpy
	subw	$1, disable_speculation
.Ltmp27:
	#DEBUG_VALUE: __niter <- [DW_OP_constu 4, DW_OP_minus, DW_OP_stack_value] undef
	leaq	(%r12,%r14), %rdi
	addq	$16640, %rdi            # imm = 0x4100
	movl	$4160, %edx             # imm = 0x1040
	movq	%r13, %rsi
	movq	%rsp, current_rsp
	leaq	specfuzz_rtl_frame, %rsp
	callq	specfuzz_rlbk_external_call
	movq	current_rsp, %rsp
	addw	$1, disable_speculation
	callq	__asan_memcpy
	subw	$1, disable_speculation
.Ltmp28:
	#DEBUG_VALUE: __niter <- [DW_OP_constu 5, DW_OP_minus, DW_OP_stack_value] undef
	leaq	(%r12,%r14), %rdi
	addq	$20800, %rdi            # imm = 0x5140
	movl	$4160, %edx             # imm = 0x1040
	movq	%r13, %rsi
	movq	%rsp, current_rsp
	leaq	specfuzz_rtl_frame, %rsp
	callq	specfuzz_rlbk_external_call
	movq	current_rsp, %rsp
	addw	$1, disable_speculation
	callq	__asan_memcpy
	subw	$1, disable_speculation
.Ltmp29:
	#DEBUG_VALUE: __niter <- [DW_OP_constu 6, DW_OP_minus, DW_OP_stack_value] undef
	.loc	54 759 13               # /usr/lib/gcc/x86_64-linux-gnu/9/../../../../include/c++/9/bits/stl_algobase.h:759:13
	addq	$24960, %r14            # imm = 0x6180
	cmpq	$1073280, %r14          # imm = 0x106080
.Ltmp30:
	.loc	54 758 7                # /usr/lib/gcc/x86_64-linux-gnu/9/../../../../include/c++/9/bits/stl_algobase.h:758:7
	movq	%rsp, current_rsp
	leaq	specfuzz_rtl_frame, %rsp
	callq	specfuzz_chkp
	movq	current_rsp, %rsp
	jmp	.LBB0_27
	je	.LBB0_7
	jmp	.LBB0_8
.Ltmp31:
.LBB0_27:                               # %for.body.i.i.i.i.i.i.i
                                        #   in Loop: Header=BB0_7 Depth=1
	jne	.LBB0_7
.Ltmp32:
.LBB0_8:                                # %invoke.cont
	#DEBUG_VALUE: TimingArray:this <- $r15
	.loc	53 566 4                # /usr/lib/gcc/x86_64-linux-gnu/9/../../../../include/c++/9/bits/stl_uninitialized.h:566:4
	subq	$11, instruction_counter
	movl	$520, %esi              # imm = 0x208
	movq	32(%rbx), %rdi          # 8-byte Reload
	movq	%rsp, current_rsp
	leaq	specfuzz_rtl_frame, %rsp
	callq	specfuzz_rlbk_external_call
	movq	current_rsp, %rsp
	addw	$1, disable_speculation
	callq	__asan_set_shadow_f8
	subw	$1, disable_speculation
.Ltmp33:
	.loc	12 1602 26              # /usr/lib/gcc/x86_64-linux-gnu/9/../../../../include/c++/9/bits/stl_vector.h:1602:26
	movq	48(%rbx), %rdi          # 8-byte Reload
	movq	%rsp, current_rsp
	leaq	asan_rtl_frame, %rsp
	callq	__asan_store8
	movq	current_rsp, %rsp
	movq	40(%rbx), %rax          # 8-byte Reload
	movq	%rsp, current_rsp
	movq	%r15, tmp_gpr1
	leaq	16(%r15), %r15
.Ltmp34:
	movq	checkpoint_sp, %rsp
	pushq	%r15
	pushq	(%r15)
	movq	%rsp, checkpoint_sp
	movq	tmp_gpr1, %r15
	movq	current_rsp, %rsp
	movq	%rax, 16(%r15)
	movq	16(%rbx), %rdi          # 8-byte Reload
	movq	%rsp, current_rsp
	leaq	asan_rtl_frame, %rsp
	callq	__asan_load8
	movq	current_rsp, %rsp
	movq	8(%r15), %r14
	movl	$213, %r12d
.Ltmp35:
	#DEBUG_VALUE: i <- 0
	.p2align	4, 0x90
.LBB0_9:                                # %invoke.cont5
                                        # =>This Inner Loop Header: Depth=1
	#DEBUG_VALUE: TimingArray:this <- $r15
	#DEBUG_VALUE: i <- undef
	#DEBUG_VALUE: ElementAt:i <- undef
	#DEBUG_VALUE: operator[]:i <- undef
	.loc	2 87 31                 # ./timing_array.h:87:31
	subq	$15, instruction_counter
	leal	-113(%r12), %eax
	orl	$1, %eax
	.loc	2 90 24                 # ./timing_array.h:90:24
	movzbl	%al, %eax
	.loc	2 90 45 is_stmt 0       # ./timing_array.h:90:45
	imulq	$4160, %rax, %r13       # imm = 0x1040
	leaq	(%r14,%r13), %rdi
.Ltmp36:
	.loc	14 32 18 is_stmt 1      # timing_array.cc:32:18
	movq	%rsp, current_rsp
	leaq	asan_rtl_frame, %rsp
	callq	__asan_store4
	movq	current_rsp, %rsp
	movq	%rsp, current_rsp
	movq	%r15, tmp_gpr1
	leaq	(%r14,%r13), %r15
.Ltmp37:
	movq	checkpoint_sp, %rsp
	pushq	%r15
	pushq	(%r15)
	movq	%rsp, checkpoint_sp
	movq	tmp_gpr1, %r15
	movq	current_rsp, %rsp
	movl	$-1, (%r14,%r13)
.Ltmp38:
	#DEBUG_VALUE: i <- [DW_OP_plus_uconst 1, DW_OP_stack_value] undef
	.loc	2 87 31                 # ./timing_array.h:87:31
	movzbl	%r12b, %eax
.Ltmp39:
	#DEBUG_VALUE: operator[]:el <- $rax
	.loc	2 90 24                 # ./timing_array.h:90:24
	imulq	$4160, %rax, %r13       # imm = 0x1040
	.loc	2 90 45 is_stmt 0       # ./timing_array.h:90:45
	leaq	(%r14,%r13), %rdi
	addq	$4160, %rdi             # imm = 0x1040
.Ltmp40:
	.loc	14 32 18 is_stmt 1      # timing_array.cc:32:18
	movq	%rsp, current_rsp
	leaq	asan_rtl_frame, %rsp
	callq	__asan_store4
.Ltmp41:
	movq	current_rsp, %rsp
	movq	%rsp, current_rsp
	movq	%r15, tmp_gpr1
	leaq	4160(%r14,%r13), %r15
	movq	checkpoint_sp, %rsp
	pushq	%r15
	pushq	(%r15)
	movq	%rsp, checkpoint_sp
	movq	tmp_gpr1, %r15
	movq	current_rsp, %rsp
	movl	$-1, 4160(%r14,%r13)
.Ltmp42:
	#DEBUG_VALUE: i <- [DW_OP_plus_uconst 1, DW_OP_stack_value] undef
	.loc	14 31 21                # timing_array.cc:31:21
	addq	$226, %r12
	cmpq	$29141, %r12            # imm = 0x71D5
.Ltmp43:
	.loc	14 31 3 is_stmt 0       # timing_array.cc:31:3
	movq	%rsp, current_rsp
	leaq	specfuzz_rtl_frame, %rsp
	callq	specfuzz_chkp
	movq	current_rsp, %rsp
	jmp	.LBB0_28
	je	.LBB0_9
	jmp	.LBB0_10
.LBB0_28:                               # %invoke.cont5
                                        #   in Loop: Header=BB0_9 Depth=1
	jne	.LBB0_9
.Ltmp44:
.LBB0_10:                               # %for.cond.cleanup
	#DEBUG_VALUE: TimingArray:this <- $r15
	.loc	14 36 3 is_stmt 1       # timing_array.cc:36:3
	subq	$2, instruction_counter
	movb	_ZGVZN11TimingArrayC1EvE9threshold(%rip), %al
	testb	%al, %al
	movq	%rsp, current_rsp
	leaq	specfuzz_rtl_frame, %rsp
	callq	specfuzz_chkp
	movq	current_rsp, %rsp
	jmp	.LBB0_29
	jne	.LBB0_11
	jmp	.LBB0_14
.Ltmp45:
.LBB0_29:                               # %for.cond.cleanup
	je	.LBB0_11
.LBB0_14:                               # %init.end
	.loc	14 37 36                # timing_array.cc:37:36
	subq	$8, instruction_counter
	movq	_ZZN11TimingArrayC1EvE9threshold(%rip), %r14
	.loc	14 37 34 is_stmt 0      # timing_array.cc:37:34
	movq	%r15, %rdi
	movq	%rsp, current_rsp
	leaq	asan_rtl_frame, %rsp
	callq	__asan_store8
	movq	current_rsp, %rsp
	movq	%rsp, current_rsp
	movq	%r15, tmp_gpr1
	leaq	(%r15), %r15
	movq	checkpoint_sp, %rsp
	pushq	%r15
	pushq	(%r15)
	movq	%rsp, checkpoint_sp
	movq	tmp_gpr1, %r15
	movq	current_rsp, %rsp
	movq	%r14, (%r15)
.Ltmp46:
	.loc	14 38 1 is_stmt 1       # timing_array.cc:38:1
	movq	24(%rbx), %rax          # 8-byte Reload
	movq	%rsp, current_rsp
	movq	%r15, tmp_gpr1
	leaq	(%rax), %r15
	movq	checkpoint_sp, %rsp
	pushq	%r15
	pushq	(%r15)
	movq	%rsp, checkpoint_sp
	movq	tmp_gpr1, %r15
	movq	current_rsp, %rsp
	movq	$1172321806, (%rax)     # imm = 0x45E0360E
	movq	(%rbx), %rdi            # 8-byte Reload
	testq	%rdi, %rdi
	movq	%rsp, current_rsp
	leaq	specfuzz_rtl_frame, %rsp
	callq	specfuzz_chkp
	movq	current_rsp, %rsp
	jmp	.LBB0_30
	jne	.LBB0_16
	jmp	.LBB0_15
.LBB0_30:                               # %init.end
	je	.LBB0_16
.LBB0_15:
	subq	$3, instruction_counter
	movl	$4480, %esi             # imm = 0x1180
	movq	%rsp, current_rsp
	leaq	specfuzz_rtl_frame, %rsp
	callq	specfuzz_rlbk_external_call
	movq	current_rsp, %rsp
	addw	$1, disable_speculation
	callq	__asan_stack_free_7
	subw	$1, disable_speculation
	movq	%rsp, current_rsp
	leaq	specfuzz_rtl_frame, %rsp
	callq	specfuzz_rlbk_if_done
	movq	current_rsp, %rsp
	jmp	.LBB0_17
.LBB0_1:
.Ltmp47:
	#DEBUG_VALUE: TimingArray:this <- $r15
	.loc	14 0 1 is_stmt 0        # timing_array.cc:0:1
	subq	$5, instruction_counter
	xorl	%eax, %eax
	.loc	14 21 0 is_stmt 1       # timing_array.cc:21:0
	movq	%rax, %r13
	movq	%rsp, current_rsp
	movq	%r15, tmp_gpr1
	leaq	(%rbx), %r15
.Ltmp48:
	.loc	14 0 0 is_stmt 0        # timing_array.cc:0:0
	movq	checkpoint_sp, %rsp
	pushq	%r15
	pushq	(%r15)
	movq	%rsp, checkpoint_sp
	movq	tmp_gpr1, %r15
	movq	current_rsp, %rsp
	movq	%rax, (%rbx)            # 8-byte Spill
	.loc	14 21 0                 # timing_array.cc:21:0
	testq	%rax, %rax
	movq	%rsp, current_rsp
	leaq	specfuzz_rtl_frame, %rsp
	callq	specfuzz_chkp
	movq	current_rsp, %rsp
	jmp	.LBB0_31
	je	.LBB0_5
	jmp	.LBB0_4
.LBB0_31:
	.loc	14 0 0                  # timing_array.cc:0:0
	jne	.LBB0_5
	jmp	.LBB0_4
.LBB0_16:
	.loc	14 38 1 is_stmt 1       # timing_array.cc:38:1
	subq	$3, instruction_counter
	movl	$560, %esi              # imm = 0x230
	movq	8(%rbx), %rdi           # 8-byte Reload
	movq	%rsp, current_rsp
	leaq	specfuzz_rtl_frame, %rsp
	callq	specfuzz_rlbk_external_call
	movq	current_rsp, %rsp
	addw	$1, disable_speculation
	callq	__asan_set_shadow_00
	subw	$1, disable_speculation
.LBB0_17:
	subq	$8, instruction_counter
	leaq	-40(%rbp), %rsp
	popq	%rbx
	popq	%r12
	popq	%r13
	popq	%r14
	popq	%r15
	popq	%rbp
	.cfi_def_cfa %rsp, 8
	movq	%rdi, tmp_gpr1
	movq	(%rsp), %rdi
	movq	%rsp, current_rsp
	leaq	specfuzz_rtl_frame, %rsp
	callq	specfuzz_check_code_pointer
	movq	current_rsp, %rsp
	movq	tmp_gpr1, %rdi
	retq
.LBB0_11:                               # %init.check
	.cfi_def_cfa %rbp, 16
.Ltmp49:
	#DEBUG_VALUE: TimingArray:this <- $r15
	.loc	14 36 3                 # timing_array.cc:36:3
	subq	$3, instruction_counter
	movl	$_ZGVZN11TimingArrayC1EvE9threshold, %edi
	movq	%rsp, current_rsp
	leaq	specfuzz_rtl_frame, %rsp
	callq	specfuzz_rlbk_external_call
	movq	current_rsp, %rsp
	addw	$1, disable_speculation
	callq	__cxa_guard_acquire
	subw	$1, disable_speculation
	testl	%eax, %eax
	movq	%rsp, current_rsp
	leaq	specfuzz_rtl_frame, %rsp
	callq	specfuzz_chkp
	movq	current_rsp, %rsp
	jmp	.LBB0_32
	jne	.LBB0_14
	jmp	.LBB0_12
.Ltmp50:
.LBB0_32:                               # %init.check
	je	.LBB0_14
.LBB0_12:                               # %init
.Ltmp51:
	#DEBUG_VALUE: TimingArray:this <- $r15
.Ltmp3:
	.loc	14 0 3 is_stmt 0        # timing_array.cc:0:3
	subq	$3, instruction_counter
	movq	%r15, %r14
	.loc	14 36 31                # timing_array.cc:36:31
	movq	%r15, %rdi
	movq	%rsp, current_rsp
	leaq	specfuzz_rtl_frame, %rsp
	callq	specfuzz_rlbk_external_call
	movq	current_rsp, %rsp
	addw	$1, disable_speculation
	callq	_ZN11TimingArray30FindCachedReadLatencyThresholdEv
	subw	$1, disable_speculation
.Ltmp4:
.Ltmp52:
# %bb.13:                               # %invoke.cont8
	#DEBUG_VALUE: TimingArray:this <- $r15
	.loc	14 36 3                 # timing_array.cc:36:3
	subq	$5, instruction_counter
	movq	%rsp, current_rsp
	movq	%r15, tmp_gpr1
	leaq	_ZZN11TimingArrayC1EvE9threshold(%rip), %r15
.Ltmp53:
	movq	checkpoint_sp, %rsp
	pushq	%r15
	pushq	(%r15)
	movq	%rsp, checkpoint_sp
	movq	tmp_gpr1, %r15
	movq	current_rsp, %rsp
	movq	%rax, _ZZN11TimingArrayC1EvE9threshold(%rip)
	movl	$_ZGVZN11TimingArrayC1EvE9threshold, %edi
	movq	%rsp, current_rsp
	leaq	specfuzz_rtl_frame, %rsp
	callq	specfuzz_rlbk_external_call
	movq	current_rsp, %rsp
	addw	$1, disable_speculation
	callq	__cxa_guard_release
	subw	$1, disable_speculation
	movq	%r14, %r15
	movq	%rsp, current_rsp
	leaq	specfuzz_rtl_frame, %rsp
	callq	specfuzz_rlbk_if_done
	movq	current_rsp, %rsp
	jmp	.LBB0_14
.LBB0_18:                               # %lpad7
.Ltmp54:
	#DEBUG_VALUE: TimingArray:this <- $r15
.Ltmp5:
	.loc	14 0 3                  # timing_array.cc:0:3
	subq	$8, instruction_counter
	movq	%rax, %r15
.Ltmp55:
	.loc	14 36 3                 # timing_array.cc:36:3
	movl	$_ZGVZN11TimingArrayC1EvE9threshold, %edi
	movq	%rsp, current_rsp
	leaq	specfuzz_rtl_frame, %rsp
	callq	specfuzz_rlbk_external_call
	movq	current_rsp, %rsp
	addw	$1, disable_speculation
	callq	__cxa_guard_abort
	subw	$1, disable_speculation
	movq	16(%rbx), %r14          # 8-byte Reload
.Ltmp56:
	.loc	12 332 24 is_stmt 1     # /usr/lib/gcc/x86_64-linux-gnu/9/../../../../include/c++/9/bits/stl_vector.h:332:24
	movq	%r14, %rdi
	movq	%rsp, current_rsp
	leaq	asan_rtl_frame, %rsp
	callq	__asan_load8
	movq	current_rsp, %rsp
	movq	(%r14), %rdi
.Ltmp57:
	#DEBUG_VALUE: _M_deallocate:__p <- $rdi
	#DEBUG_VALUE: deallocate:__p <- $rdi
	#DEBUG_VALUE: deallocate:__p <- $rdi
	.loc	12 350 6                # /usr/lib/gcc/x86_64-linux-gnu/9/../../../../include/c++/9/bits/stl_vector.h:350:6
	testq	%rdi, %rdi
.Ltmp58:
	.loc	12 350 6 is_stmt 0      # /usr/lib/gcc/x86_64-linux-gnu/9/../../../../include/c++/9/bits/stl_vector.h:350:6
	movq	%rsp, current_rsp
	leaq	specfuzz_rtl_frame, %rsp
	callq	specfuzz_chkp
	movq	current_rsp, %rsp
	jmp	.LBB0_33
	jne	.LBB0_20
	jmp	.LBB0_19
.Ltmp59:
.LBB0_33:                               # %lpad7
	je	.LBB0_20
.LBB0_19:                               # %if.then.i.i.i
.Ltmp60:
	#DEBUG_VALUE: deallocate:__p <- $rdi
	#DEBUG_VALUE: deallocate:__p <- $rdi
	#DEBUG_VALUE: _M_deallocate:__p <- $rdi
	.loc	8 128 2 is_stmt 1       # /usr/lib/gcc/x86_64-linux-gnu/9/../../../../include/c++/9/ext/new_allocator.h:128:2
	subq	$5, instruction_counter
	movq	%rsp, current_rsp
	leaq	specfuzz_rtl_frame, %rsp
	callq	specfuzz_rlbk_external_call
	movq	current_rsp, %rsp
	addw	$1, disable_speculation
	callq	_ZdlPv
.Ltmp61:
	subw	$1, disable_speculation
.Ltmp62:
	.loc	2 164 33                # ./timing_array.h:164:33
	movq	24(%rbx), %rax          # 8-byte Reload
	movq	%rsp, current_rsp
	movq	%r15, tmp_gpr1
	leaq	(%rax), %r15
	movq	checkpoint_sp, %rsp
	pushq	%r15
	pushq	(%r15)
	movq	%rsp, checkpoint_sp
	movq	tmp_gpr1, %r15
	movq	current_rsp, %rsp
	movq	$1172321806, (%rax)     # imm = 0x45E0360E
	cmpq	$0, (%rbx)              # 8-byte Folded Reload
	jne	.LBB0_21
	jmp	.LBB0_22
.LBB0_24:                               # %lpad
.Ltmp63:
	#DEBUG_VALUE: TimingArray:this <- $r15
.Ltmp2:
	.loc	2 0 33 is_stmt 0        # ./timing_array.h:0:33
	subq	$1, instruction_counter
	movq	%rax, %r15
.Ltmp64:
.LBB0_20:                               # %eh.resume
	.loc	2 164 33                # ./timing_array.h:164:33
	subq	$3, instruction_counter
	movq	24(%rbx), %rax          # 8-byte Reload
	movq	%rsp, current_rsp
	movq	%r15, tmp_gpr1
	leaq	(%rax), %r15
	movq	checkpoint_sp, %rsp
	pushq	%r15
	pushq	(%r15)
	movq	%rsp, checkpoint_sp
	movq	tmp_gpr1, %r15
	movq	current_rsp, %rsp
	movq	$1172321806, (%rax)     # imm = 0x45E0360E
	cmpq	$0, (%rbx)              # 8-byte Folded Reload
	je	.LBB0_22
.LBB0_21:
	subq	$5, instruction_counter
	movl	$4480, %esi             # imm = 0x1180
	movq	(%rbx), %rdi            # 8-byte Reload
	movq	%rsp, current_rsp
	leaq	specfuzz_rtl_frame, %rsp
	callq	specfuzz_rlbk_external_call
	movq	current_rsp, %rsp
	addw	$1, disable_speculation
	callq	__asan_stack_free_7
	subw	$1, disable_speculation
	movq	%r15, %rdi
	movq	%rsp, current_rsp
	leaq	specfuzz_rtl_frame, %rsp
	callq	specfuzz_rlbk_external_call
	movq	current_rsp, %rsp
	addw	$1, disable_speculation
	callq	_Unwind_Resume
	subw	$1, disable_speculation
.LBB0_22:
	subq	$5, instruction_counter
	movl	$560, %esi              # imm = 0x230
	movq	8(%rbx), %rdi           # 8-byte Reload
	movq	%rsp, current_rsp
	leaq	specfuzz_rtl_frame, %rsp
	callq	specfuzz_rlbk_external_call
	movq	current_rsp, %rsp
	addw	$1, disable_speculation
	callq	__asan_set_shadow_00
	subw	$1, disable_speculation
	movq	%r15, %rdi
	movq	%rsp, current_rsp
	leaq	specfuzz_rtl_frame, %rsp
	callq	specfuzz_rlbk_external_call
	movq	current_rsp, %rsp
	addw	$1, disable_speculation
	callq	_Unwind_Resume
	subw	$1, disable_speculation
.Ltmp65:
.Lfunc_end0:
	.size	_ZN11TimingArrayC2Ev, .Lfunc_end0-_ZN11TimingArrayC2Ev
	.cfi_endproc
	.file	55 "/usr/lib/gcc/x86_64-linux-gnu/9/../../../../include/c++/9/ext/type_traits.h"
	.section	.gcc_except_table,"a",@progbits
	.p2align	2
GCC_except_table0:
.Lexception0:
	.byte	255                     # @LPStart Encoding = omit
	.byte	255                     # @TType Encoding = omit
	.byte	1                       # Call site Encoding = uleb128
	.uleb128 .Lcst_end0-.Lcst_begin0
.Lcst_begin0:
	.uleb128 .Lfunc_begin0-.Lfunc_begin0 # >> Call Site 1 <<
	.uleb128 .Ltmp0-.Lfunc_begin0   #   Call between .Lfunc_begin0 and .Ltmp0
	.byte	0                       #     has no landing pad
	.byte	0                       #   On action: cleanup
	.uleb128 .Ltmp0-.Lfunc_begin0   # >> Call Site 2 <<
	.uleb128 .Ltmp1-.Ltmp0          #   Call between .Ltmp0 and .Ltmp1
	.uleb128 .Ltmp2-.Lfunc_begin0   #     jumps to .Ltmp2
	.byte	0                       #   On action: cleanup
	.uleb128 .Ltmp1-.Lfunc_begin0   # >> Call Site 3 <<
	.uleb128 .Ltmp3-.Ltmp1          #   Call between .Ltmp1 and .Ltmp3
	.byte	0                       #     has no landing pad
	.byte	0                       #   On action: cleanup
	.uleb128 .Ltmp3-.Lfunc_begin0   # >> Call Site 4 <<
	.uleb128 .Ltmp4-.Ltmp3          #   Call between .Ltmp3 and .Ltmp4
	.uleb128 .Ltmp5-.Lfunc_begin0   #     jumps to .Ltmp5
	.byte	0                       #   On action: cleanup
	.uleb128 .Ltmp4-.Lfunc_begin0   # >> Call Site 5 <<
	.uleb128 .Lfunc_end0-.Ltmp4     #   Call between .Ltmp4 and .Lfunc_end0
	.byte	0                       #     has no landing pad
	.byte	0                       #   On action: cleanup
.Lcst_end0:
	.p2align	2
                                        # -- End function
	.section	.rodata.cst16,"aM",@progbits,16
	.p2align	4               # -- Begin function _ZN11TimingArray30FindCachedReadLatencyThresholdEv
.LCPI1_0:
	.long	1127219200              # 0x43300000
	.long	1160773632              # 0x45300000
	.long	0                       # 0x0
	.long	0                       # 0x0
.LCPI1_1:
	.quad	4841369599423283200     # double 4503599627370496
	.quad	4985484787499139072     # double 1.9342813113834067E+25
	.section	.rodata.cst8,"aM",@progbits,8
	.p2align	3
.LCPI1_2:
	.quad	4591870180066957722     # double 0.10000000000000001
	.text
	.globl	_ZN11TimingArray30FindCachedReadLatencyThresholdEv
	.p2align	4, 0x90
	.type	_ZN11TimingArray30FindCachedReadLatencyThresholdEv,@function
_ZN11TimingArray30FindCachedReadLatencyThresholdEv: # @_ZN11TimingArray30FindCachedReadLatencyThresholdEv
.Lfunc_begin1:
	.loc	14 123 0 is_stmt 1      # timing_array.cc:123:0
	.cfi_startproc
	.cfi_personality 3, __gxx_personality_v0
	.cfi_lsda 3, .Lexception1
# %bb.0:                                # %entry
	nopl	42(%rbx)
	subq	$15, instruction_counter
	movq	%rsp, current_rsp
	movq	%r15, tmp_gpr1
	leaq	-8(%rsp), %r15
	movq	checkpoint_sp, %rsp
	pushq	%r15
	pushq	(%r15)
	movq	%rsp, checkpoint_sp
	movq	tmp_gpr1, %r15
	movq	current_rsp, %rsp
	pushq	%rbp
	.cfi_def_cfa_offset 16
	movq	%rsp, current_rsp
	movq	%r15, tmp_gpr1
	leaq	-8(%rsp), %r15
	movq	checkpoint_sp, %rsp
	pushq	%r15
	pushq	(%r15)
	movq	%rsp, checkpoint_sp
	movq	tmp_gpr1, %r15
	movq	current_rsp, %rsp
	pushq	%r15
	.cfi_def_cfa_offset 24
	movq	%rsp, current_rsp
	movq	%r15, tmp_gpr1
	leaq	-8(%rsp), %r15
	movq	checkpoint_sp, %rsp
	pushq	%r15
	pushq	(%r15)
	movq	%rsp, checkpoint_sp
	movq	tmp_gpr1, %r15
	movq	current_rsp, %rsp
	pushq	%r14
	.cfi_def_cfa_offset 32
	movq	%rsp, current_rsp
	movq	%r15, tmp_gpr1
	leaq	-8(%rsp), %r15
	movq	checkpoint_sp, %rsp
	pushq	%r15
	pushq	(%r15)
	movq	%rsp, checkpoint_sp
	movq	tmp_gpr1, %r15
	movq	current_rsp, %rsp
	pushq	%r13
	.cfi_def_cfa_offset 40
	movq	%rsp, current_rsp
	movq	%r15, tmp_gpr1
	leaq	-8(%rsp), %r15
	movq	checkpoint_sp, %rsp
	pushq	%r15
	pushq	(%r15)
	movq	%rsp, checkpoint_sp
	movq	tmp_gpr1, %r15
	movq	current_rsp, %rsp
	pushq	%r12
	.cfi_def_cfa_offset 48
	movq	%rsp, current_rsp
	movq	%r15, tmp_gpr1
	leaq	-8(%rsp), %r15
	movq	checkpoint_sp, %rsp
	pushq	%r15
	pushq	(%r15)
	movq	%rsp, checkpoint_sp
	movq	tmp_gpr1, %r15
	movq	current_rsp, %rsp
	pushq	%rbx
	.cfi_def_cfa_offset 56
	subq	$40, %rsp
	.cfi_def_cfa_offset 96
	.cfi_offset %rbx, -56
	.cfi_offset %r12, -48
	.cfi_offset %r13, -40
	.cfi_offset %r14, -32
	.cfi_offset %r15, -24
	.cfi_offset %rbp, -16
	#DEBUG_VALUE: FindCachedReadLatencyThreshold:this <- $rdi
	movq	%rdi, %r13
.Ltmp82:
	#DEBUG_VALUE: n <- 0
	#DEBUG_VALUE: FindCachedReadLatencyThreshold:max_read_latencies <- [DW_OP_deref] undef
	#DEBUG_VALUE: FindCachedReadLatencyThreshold:percentile <- 10
	#DEBUG_VALUE: FindCachedReadLatencyThreshold:iterations <- 1000
	#DEBUG_VALUE: FindCachedReadLatencyThreshold:this <- $r13
	addq	$8, %r13
.Ltmp83:
	xorl	%ecx, %ecx
	xorl	%eax, %eax
	movq	%rsp, current_rsp
	movq	%r15, tmp_gpr1
	leaq	8(%rsp), %r15
	movq	checkpoint_sp, %rsp
	pushq	%r15
	pushq	(%r15)
	movq	%rsp, checkpoint_sp
	movq	tmp_gpr1, %r15
	movq	current_rsp, %rsp
	movq	%rax, 8(%rsp)           # 8-byte Spill
	xorl	%eax, %eax
	movq	%rsp, current_rsp
	movq	%r15, tmp_gpr1
	leaq	(%rsp), %r15
	movq	checkpoint_sp, %rsp
	pushq	%r15
	pushq	(%r15)
	movq	%rsp, checkpoint_sp
	movq	tmp_gpr1, %r15
	movq	current_rsp, %rsp
	movq	%rax, (%rsp)            # 8-byte Spill
	xorl	%r15d, %r15d
	.p2align	4, 0x90
.LBB1_1:                                # %for.cond2.preheader
                                        # =>This Loop Header: Depth=1
                                        #     Child Loop BB1_2 Depth 2
                                        #     Child Loop BB1_4 Depth 2
.Ltmp84:
	#DEBUG_VALUE: deallocate:__p <- [$rsp+0]
	#DEBUG_VALUE: deallocate:__p <- [$rsp+0]
	#DEBUG_VALUE: _M_deallocate:__p <- [$rsp+0]
	#DEBUG_VALUE: __relocate_a_1<unsigned long, unsigned long>:__first <- [$rsp+0]
	#DEBUG_VALUE: __relocate_a<unsigned long *, unsigned long *, std::allocator<unsigned long> >:__first <- [$rsp+0]
	#DEBUG_VALUE: _S_do_relocate:__first <- [$rsp+0]
	#DEBUG_VALUE: _S_relocate:__first <- [$rsp+0]
	#DEBUG_VALUE: _M_realloc_insert<const unsigned long &>:__old_start <- [$rsp+0]
	subq	$5, instruction_counter
	movq	%rsp, current_rsp
	movq	%r15, tmp_gpr1
	leaq	32(%rsp), %r15
	movq	checkpoint_sp, %rsp
.Ltmp85:
	pushq	%r15
	pushq	(%r15)
	movq	%rsp, checkpoint_sp
	movq	tmp_gpr1, %r15
	movq	current_rsp, %rsp
	movq	%rcx, 32(%rsp)          # 8-byte Spill
	movq	%r13, %rdi
	movq	%rsp, current_rsp
	leaq	asan_rtl_frame, %rsp
	callq	__asan_load8
	movq	current_rsp, %rsp
	movq	(%r13), %r14
	movl	$213, %ebp
.Ltmp86:
	#DEBUG_VALUE: i <- 0
	#DEBUG_VALUE: n <- [DW_OP_plus_uconst 32] [$rsp+0]
	.p2align	4, 0x90
.LBB1_2:                                # %invoke.cont7
                                        #   Parent Loop BB1_1 Depth=1
                                        # =>  This Inner Loop Header: Depth=2
	#DEBUG_VALUE: n <- [DW_OP_plus_uconst 32] [$rsp+0]
	#DEBUG_VALUE: i <- undef
	#DEBUG_VALUE: ElementAt:i <- undef
	#DEBUG_VALUE: operator[]:i <- undef
	.loc	2 87 31 prologue_end    # ./timing_array.h:87:31
	subq	$15, instruction_counter
	leal	-113(%rbp), %eax
	orl	$1, %eax
	.loc	2 90 24                 # ./timing_array.h:90:24
	movzbl	%al, %eax
.Ltmp87:
	#DEBUG_VALUE: operator[]:__n <- $rax
	.loc	2 90 45 is_stmt 0       # ./timing_array.h:90:45
	imulq	$4160, %rax, %rbx       # imm = 0x1040
	leaq	(%r14,%rbx), %rdi
.Ltmp88:
	#DEBUG_VALUE: ForceRead:p <- $rdi
	.file	56 "/usr/local/google/home/zbrid/sanitizer/safeside/demos/spectre_v1/./utils.h"
	.loc	56 21 9 is_stmt 1       # ./utils.h:21:9
	movq	%rsp, current_rsp
	leaq	asan_rtl_frame, %rsp
	callq	__asan_load1
.Ltmp89:
	movq	current_rsp, %rsp
.Ltmp90:
	movzbl	(%r14,%rbx), %eax
.Ltmp91:
	#DEBUG_VALUE: i <- [DW_OP_plus_uconst 1, DW_OP_stack_value] undef
	.loc	2 87 31                 # ./timing_array.h:87:31
	movzbl	%bpl, %eax
.Ltmp92:
	#DEBUG_VALUE: operator[]:el <- $rax
	.loc	2 90 24                 # ./timing_array.h:90:24
	imulq	$4160, %rax, %rbx       # imm = 0x1040
	.loc	2 90 45 is_stmt 0       # ./timing_array.h:90:45
	leaq	(%r14,%rbx), %rdi
	addq	$4160, %rdi             # imm = 0x1040
.Ltmp93:
	#DEBUG_VALUE: ForceRead:p <- $rdi
	.loc	56 21 9 is_stmt 1       # ./utils.h:21:9
	movq	%rsp, current_rsp
	leaq	asan_rtl_frame, %rsp
	callq	__asan_load1
.Ltmp94:
	movq	current_rsp, %rsp
	movzbl	4160(%r14,%rbx), %eax
.Ltmp95:
	#DEBUG_VALUE: i <- [DW_OP_plus_uconst 1, DW_OP_stack_value] undef
	.loc	14 132 23               # timing_array.cc:132:23
	addq	$226, %rbp
	cmpq	$29141, %rbp            # imm = 0x71D5
.Ltmp96:
	.loc	14 132 5 is_stmt 0      # timing_array.cc:132:5
	movq	%rsp, current_rsp
	leaq	specfuzz_rtl_frame, %rsp
	callq	specfuzz_chkp
	movq	current_rsp, %rsp
	jmp	.LBB1_37
	je	.LBB1_2
	jmp	.LBB1_3
.LBB1_37:                               # %invoke.cont7
                                        #   in Loop: Header=BB1_2 Depth=2
	jne	.LBB1_2
.Ltmp97:
.LBB1_3:                                # %invoke.cont22.preheader
                                        #   in Loop: Header=BB1_1 Depth=1
	.loc	14 0 5                  # timing_array.cc:0:5
	subq	$3, instruction_counter
	movl	$100, %ebp
	xorl	%ebx, %ebx
	xorl	%r14d, %r14d
	.p2align	4, 0x90
.LBB1_4:                                # %invoke.cont22
                                        #   Parent Loop BB1_1 Depth=1
                                        # =>  This Inner Loop Header: Depth=2
.Ltmp98:
	#DEBUG_VALUE: operator[]:i <- $rbx
	#DEBUG_VALUE: ElementAt:i <- $rbx
	#DEBUG_VALUE: i <- $rbx
	.loc	2 87 31 is_stmt 1       # ./timing_array.h:87:31
	subq	$8, instruction_counter
	movzbl	%bpl, %eax
.Ltmp99:
	#DEBUG_VALUE: operator[]:el <- $rax
	.loc	2 90 24                 # ./timing_array.h:90:24
	imulq	$4160, %rax, %r12       # imm = 0x1040
.Ltmp100:
	.loc	12 1043 25              # /usr/lib/gcc/x86_64-linux-gnu/9/../../../../include/c++/9/bits/stl_vector.h:1043:25
	movq	%r13, %rdi
	movq	%rsp, current_rsp
	leaq	asan_rtl_frame, %rsp
	callq	__asan_load8
.Ltmp101:
	movq	current_rsp, %rsp
	movq	(%r13), %rax
.Ltmp102:
	.loc	2 90 45                 # ./timing_array.h:90:45
	leaq	(%rax,%r12), %rdi
	addq	$4160, %rdi             # imm = 0x1040
.Ltmp103:
.Ltmp66:
	.loc	14 140 38               # timing_array.cc:140:38
	movq	%rsp, current_rsp
	leaq	specfuzz_rtl_frame, %rsp
	callq	specfuzz_rlbk_external_call
	movq	current_rsp, %rsp
	addw	$1, disable_speculation
	callq	MeasureReadLatency
	subw	$1, disable_speculation
.Ltmp67:
.Ltmp104:
# %bb.5:                                # %invoke.cont24
                                        #   in Loop: Header=BB1_4 Depth=2
	#DEBUG_VALUE: i <- $rbx
	.loc	54 227 15               # /usr/lib/gcc/x86_64-linux-gnu/9/../../../../include/c++/9/bits/stl_algobase.h:227:15
	subq	$5, instruction_counter
	cmpq	%rax, %r14
.Ltmp105:
	.loc	14 140 11               # timing_array.cc:140:11
	cmovbq	%rax, %r14
.Ltmp106:
	#DEBUG_VALUE: i <- [DW_OP_plus_uconst 1, DW_OP_stack_value] undef
	#DEBUG_VALUE: max_read_latency <- $r14
	.loc	14 138 33               # timing_array.cc:138:33
	addq	$1, %rbx
	.loc	14 138 23 is_stmt 0     # timing_array.cc:138:23
	addq	$113, %rbp
	cmpq	$256, %rbx              # imm = 0x100
.Ltmp107:
	.loc	14 138 5                # timing_array.cc:138:5
	movq	%rsp, current_rsp
	leaq	specfuzz_rtl_frame, %rsp
	callq	specfuzz_chkp
	movq	current_rsp, %rsp
	jmp	.LBB1_38
	jae	.LBB1_4
	jmp	.LBB1_6
.Ltmp108:
.LBB1_38:                               # %invoke.cont24
                                        #   in Loop: Header=BB1_4 Depth=2
	jb	.LBB1_4
.Ltmp109:
.LBB1_6:                                # %for.cond.cleanup18
                                        #   in Loop: Header=BB1_1 Depth=1
	#DEBUG_VALUE: max_read_latency <- $r14
	#DEBUG_VALUE: push_back:this <- undef
	#DEBUG_VALUE: __relocate_a_1<unsigned long, unsigned long>:__first <- $r15
	#DEBUG_VALUE: __relocate_a<unsigned long *, unsigned long *, std::allocator<unsigned long> >:__first <- $r15
	#DEBUG_VALUE: _S_do_relocate:__first <- $r15
	#DEBUG_VALUE: _S_relocate:__first <- $r15
	#DEBUG_VALUE: __relocate_a_1<unsigned long, unsigned long>:__last <- $r15
	#DEBUG_VALUE: __relocate_a<unsigned long *, unsigned long *, std::allocator<unsigned long> >:__last <- $r15
	#DEBUG_VALUE: _S_do_relocate:__last <- $r15
	#DEBUG_VALUE: _S_relocate:__last <- $r15
	#DEBUG_VALUE: construct<unsigned long, const unsigned long &>:__p <- $r15
	#DEBUG_VALUE: construct<unsigned long, const unsigned long &>:__p <- $r15
	.loc	12 1186 30 is_stmt 1    # /usr/lib/gcc/x86_64-linux-gnu/9/../../../../include/c++/9/bits/stl_vector.h:1186:30
	subq	$2, instruction_counter
	cmpq	%r15, 8(%rsp)           # 8-byte Folded Reload
.Ltmp110:
	.loc	12 1186 6 is_stmt 0     # /usr/lib/gcc/x86_64-linux-gnu/9/../../../../include/c++/9/bits/stl_vector.h:1186:6
	movq	%rsp, current_rsp
	leaq	specfuzz_rtl_frame, %rsp
	callq	specfuzz_chkp
	movq	current_rsp, %rsp
	jmp	.LBB1_39
	jne	.LBB1_14
	jmp	.LBB1_7
.Ltmp111:
.LBB1_39:                               # %for.cond.cleanup18
                                        #   in Loop: Header=BB1_1 Depth=1
	je	.LBB1_14
.LBB1_7:                                # %if.then.i
                                        #   in Loop: Header=BB1_1 Depth=1
.Ltmp112:
	#DEBUG_VALUE: construct<unsigned long, const unsigned long &>:__p <- $r15
	#DEBUG_VALUE: construct<unsigned long, const unsigned long &>:__p <- $r15
	#DEBUG_VALUE: max_read_latency <- $r14
	#DEBUG_VALUE: construct<unsigned long, const unsigned long &>:__a <- undef
	#DEBUG_VALUE: construct<unsigned long, const unsigned long &>:this <- undef
	.loc	8 147 4 is_stmt 1       # /usr/lib/gcc/x86_64-linux-gnu/9/../../../../include/c++/9/ext/new_allocator.h:147:4
	subq	$4, instruction_counter
	movq	%r15, %rdi
	movq	%rsp, current_rsp
	leaq	asan_rtl_frame, %rsp
	callq	__asan_store8
	movq	current_rsp, %rsp
	movq	%rsp, current_rsp
	movq	%r15, tmp_gpr1
	leaq	(%r15), %r15
.Ltmp113:
	movq	checkpoint_sp, %rsp
	pushq	%r15
	pushq	(%r15)
	movq	%rsp, checkpoint_sp
	movq	tmp_gpr1, %r15
	movq	current_rsp, %rsp
	movq	%r14, (%r15)
	movq	%rsp, current_rsp
	leaq	specfuzz_rtl_frame, %rsp
	callq	specfuzz_rlbk_if_done
	movq	current_rsp, %rsp
	jmp	.LBB1_29
.Ltmp114:
	.p2align	4, 0x90
.LBB1_14:                               # %if.else.i
                                        #   in Loop: Header=BB1_1 Depth=1
	#DEBUG_VALUE: max_read_latency <- $r14
	#DEBUG_VALUE: _M_realloc_insert<const unsigned long &>:this <- undef
	#DEBUG_VALUE: _M_check_len:this <- undef
	#DEBUG_VALUE: _M_check_len:__n <- 1
	#DEBUG_VALUE: size:this <- undef
	.loc	12 916 50               # /usr/lib/gcc/x86_64-linux-gnu/9/../../../../include/c++/9/bits/stl_vector.h:916:50
	subq	$3, instruction_counter
	subq	(%rsp), %r15            # 8-byte Folded Reload
.Ltmp115:
	.loc	12 1755 26              # /usr/lib/gcc/x86_64-linux-gnu/9/../../../../include/c++/9/bits/stl_vector.h:1755:26
	movabsq	$9223372036854775800, %rax # imm = 0x7FFFFFFFFFFFFFF8
	cmpq	%rax, %r15
.Ltmp116:
	.loc	12 1755 6 is_stmt 0     # /usr/lib/gcc/x86_64-linux-gnu/9/../../../../include/c++/9/bits/stl_vector.h:1755:6
	movq	%rsp, current_rsp
	leaq	specfuzz_rtl_frame, %rsp
	callq	specfuzz_chkp
	movq	current_rsp, %rsp
	jmp	.LBB1_40
	jne	.LBB1_15
	jmp	.LBB1_17
.Ltmp117:
.LBB1_40:                               # %if.else.i
                                        #   in Loop: Header=BB1_1 Depth=1
	je	.LBB1_15
.LBB1_17:                               # %_ZNKSt6vectorImSaImEE12_M_check_lenEmPKc.exit.i
                                        #   in Loop: Header=BB1_1 Depth=1
.Ltmp118:
	#DEBUG_VALUE: max_read_latency <- $r14
	.loc	12 0 6                  # /usr/lib/gcc/x86_64-linux-gnu/9/../../../../include/c++/9/bits/stl_vector.h:0:6
	subq	$13, instruction_counter
	movq	%r15, %r12
	sarq	$3, %r12
.Ltmp119:
	#DEBUG_VALUE: size:this <- undef
	#DEBUG_VALUE: size:this <- undef
	#DEBUG_VALUE: _M_realloc_insert<const unsigned long &>:__elems_before <- $r12
	#DEBUG_VALUE: __relocate_a_1<unsigned long, unsigned long>:__count <- $r12
	.loc	54 227 15 is_stmt 1     # /usr/lib/gcc/x86_64-linux-gnu/9/../../../../include/c++/9/bits/stl_algobase.h:227:15
	testq	%r15, %r15
.Ltmp120:
	#DEBUG_VALUE: size:this <- undef
	.loc	12 1758 35              # /usr/lib/gcc/x86_64-linux-gnu/9/../../../../include/c++/9/bits/stl_vector.h:1758:35
	movq	%r12, %rax
	movl	$1, %ecx
	cmoveq	%rcx, %rax
	leaq	(%rax,%r12), %rbx
	movabsq	$1152921504606846975, %rcx # imm = 0xFFFFFFFFFFFFFFF
	.loc	12 1759 34              # /usr/lib/gcc/x86_64-linux-gnu/9/../../../../include/c++/9/bits/stl_vector.h:1759:34
	cmpq	%rcx, %rbx
	.loc	12 1759 25 is_stmt 0    # /usr/lib/gcc/x86_64-linux-gnu/9/../../../../include/c++/9/bits/stl_vector.h:1759:25
	cmovaq	%rcx, %rbx
	addq	%r12, %rax
.Ltmp121:
	#DEBUG_VALUE: _M_check_len:__len <- $rax
	cmovbq	%rcx, %rbx
.Ltmp122:
	#DEBUG_VALUE: _M_allocate:this <- undef
	#DEBUG_VALUE: operator-<unsigned long *, std::vector<unsigned long, std::allocator<unsigned long> > >:__rhs <- undef
	#DEBUG_VALUE: operator-<unsigned long *, std::vector<unsigned long, std::allocator<unsigned long> > >:__lhs <- undef
	#DEBUG_VALUE: _M_realloc_insert<const unsigned long &>:__position <- [DW_OP_deref] undef
	#DEBUG_VALUE: _M_realloc_insert<const unsigned long &>:__old_finish <- [DW_OP_deref] undef
	#DEBUG_VALUE: _M_allocate:__n <- $rbx
	#DEBUG_VALUE: _M_realloc_insert<const unsigned long &>:__len <- $rbx
	#DEBUG_VALUE: allocate:__n <- $rbx
	#DEBUG_VALUE: allocate:__n <- $rbx
	.loc	12 343 13 is_stmt 1     # /usr/lib/gcc/x86_64-linux-gnu/9/../../../../include/c++/9/bits/stl_vector.h:343:13
	testq	%rbx, %rbx
	.loc	12 343 9 is_stmt 0      # /usr/lib/gcc/x86_64-linux-gnu/9/../../../../include/c++/9/bits/stl_vector.h:343:9
	movq	%rsp, current_rsp
	leaq	specfuzz_rtl_frame, %rsp
	callq	specfuzz_chkp
	movq	current_rsp, %rsp
	jmp	.LBB1_41
	jne	.LBB1_18
	jmp	.LBB1_19
.Ltmp123:
.LBB1_41:                               # %_ZNKSt6vectorImSaImEE12_M_check_lenEmPKc.exit.i
                                        #   in Loop: Header=BB1_1 Depth=1
	je	.LBB1_18
.LBB1_19:                               # %cond.true.i.i
                                        #   in Loop: Header=BB1_1 Depth=1
.Ltmp124:
	#DEBUG_VALUE: allocate:__n <- $rbx
	#DEBUG_VALUE: allocate:__n <- $rbx
	#DEBUG_VALUE: _M_realloc_insert<const unsigned long &>:__len <- $rbx
	#DEBUG_VALUE: _M_allocate:__n <- $rbx
	#DEBUG_VALUE: _M_realloc_insert<const unsigned long &>:__elems_before <- $r12
	#DEBUG_VALUE: max_read_latency <- $r14
	#DEBUG_VALUE: allocate:__a <- undef
	#DEBUG_VALUE: allocate:this <- undef
	.loc	8 104 10 is_stmt 1      # /usr/lib/gcc/x86_64-linux-gnu/9/../../../../include/c++/9/ext/new_allocator.h:104:10
	subq	$2, instruction_counter
	cmpq	%rcx, %rbx
.Ltmp125:
	.loc	8 104 6 is_stmt 0       # /usr/lib/gcc/x86_64-linux-gnu/9/../../../../include/c++/9/ext/new_allocator.h:104:6
	movq	%rsp, current_rsp
	leaq	specfuzz_rtl_frame, %rsp
	callq	specfuzz_chkp
	movq	current_rsp, %rsp
	jmp	.LBB1_42
	jbe	.LBB1_20
	jmp	.LBB1_22
.Ltmp126:
.LBB1_42:                               # %cond.true.i.i
                                        #   in Loop: Header=BB1_1 Depth=1
	ja	.LBB1_20
.LBB1_22:                               # %_ZNSt16allocator_traitsISaImEE8allocateERS0_m.exit.i.i
                                        #   in Loop: Header=BB1_1 Depth=1
.Ltmp127:
	#DEBUG_VALUE: allocate:__n <- $rbx
	#DEBUG_VALUE: allocate:__n <- $rbx
	#DEBUG_VALUE: _M_realloc_insert<const unsigned long &>:__len <- $rbx
	#DEBUG_VALUE: _M_allocate:__n <- $rbx
	#DEBUG_VALUE: _M_realloc_insert<const unsigned long &>:__elems_before <- $r12
	#DEBUG_VALUE: max_read_latency <- $r14
	.loc	8 114 46 is_stmt 1      # /usr/lib/gcc/x86_64-linux-gnu/9/../../../../include/c++/9/ext/new_allocator.h:114:46
	subq	$2, instruction_counter
	leaq	(,%rbx,8), %rdi
.Ltmp69:
	.loc	8 114 27 is_stmt 0      # /usr/lib/gcc/x86_64-linux-gnu/9/../../../../include/c++/9/ext/new_allocator.h:114:27
	movq	%rsp, current_rsp
	leaq	specfuzz_rtl_frame, %rsp
	callq	specfuzz_rlbk_external_call
	movq	current_rsp, %rsp
	addw	$1, disable_speculation
	callq	_Znwm
	subw	$1, disable_speculation
.Ltmp70:
.Ltmp128:
# %bb.23:                               # %call2.i.i.i.i.noexc
                                        #   in Loop: Header=BB1_1 Depth=1
	#DEBUG_VALUE: _M_realloc_insert<const unsigned long &>:__len <- $rbx
	#DEBUG_VALUE: _M_allocate:__n <- $rbx
	#DEBUG_VALUE: _M_realloc_insert<const unsigned long &>:__elems_before <- $r12
	#DEBUG_VALUE: max_read_latency <- $r14
	.loc	8 0 27                  # /usr/lib/gcc/x86_64-linux-gnu/9/../../../../include/c++/9/ext/new_allocator.h:0:27
	subq	$4, instruction_counter
	movq	%rax, %rcx
	.loc	12 343 9 is_stmt 1      # /usr/lib/gcc/x86_64-linux-gnu/9/../../../../include/c++/9/bits/stl_vector.h:343:9
	movq	%rsp, current_rsp
	movq	%r15, tmp_gpr1
	leaq	16(%rsp), %r15
	movq	checkpoint_sp, %rsp
	pushq	%r15
	pushq	(%r15)
	movq	%rsp, checkpoint_sp
	movq	tmp_gpr1, %r15
	movq	current_rsp, %rsp
	movq	%rax, 16(%rsp)          # 8-byte Spill
	movq	%rax, %rbp
	movq	%rsp, current_rsp
	leaq	specfuzz_rtl_frame, %rsp
	callq	specfuzz_rlbk_if_done
	movq	current_rsp, %rsp
	jmp	.LBB1_24
.Ltmp129:
.LBB1_18:                               #   in Loop: Header=BB1_1 Depth=1
	#DEBUG_VALUE: _M_realloc_insert<const unsigned long &>:__len <- $rbx
	#DEBUG_VALUE: _M_allocate:__n <- $rbx
	#DEBUG_VALUE: _M_realloc_insert<const unsigned long &>:__elems_before <- $r12
	#DEBUG_VALUE: max_read_latency <- $r14
	subq	$3, instruction_counter
	xorl	%eax, %eax
	movq	%rsp, current_rsp
	movq	%r15, tmp_gpr1
	leaq	16(%rsp), %r15
	movq	checkpoint_sp, %rsp
	pushq	%r15
	pushq	(%r15)
	movq	%rsp, checkpoint_sp
	movq	tmp_gpr1, %r15
	movq	current_rsp, %rsp
	movq	%rax, 16(%rsp)          # 8-byte Spill
	xorl	%ebp, %ebp
.Ltmp130:
.LBB1_24:                               # %_ZNSt12_Vector_baseImSaImEE11_M_allocateEm.exit.i
                                        #   in Loop: Header=BB1_1 Depth=1
	#DEBUG_VALUE: _M_realloc_insert<const unsigned long &>:__len <- $rbx
	#DEBUG_VALUE: _M_realloc_insert<const unsigned long &>:__elems_before <- $r12
	#DEBUG_VALUE: max_read_latency <- $r14
	#DEBUG_VALUE: _M_realloc_insert<const unsigned long &>:__new_start <- $rbp
	#DEBUG_VALUE: _M_realloc_insert<const unsigned long &>:__new_finish <- $rbp
	.file	57 "/usr/lib/gcc/x86_64-linux-gnu/9/../../../../include/c++/9/bits/vector.tcc"
	.loc	57 450 20               # /usr/lib/gcc/x86_64-linux-gnu/9/../../../../include/c++/9/bits/vector.tcc:450:20
	subq	$9, instruction_counter
	leaq	(,%r12,8), %rdi
	addq	%rbp, %rdi
.Ltmp131:
	#DEBUG_VALUE: construct<unsigned long, const unsigned long &>:this <- undef
	#DEBUG_VALUE: construct<unsigned long, const unsigned long &>:__a <- undef
	#DEBUG_VALUE: construct<unsigned long, const unsigned long &>:__p <- undef
	#DEBUG_VALUE: construct<unsigned long, const unsigned long &>:__p <- undef
	#DEBUG_VALUE: _S_relocate:__result <- [DW_OP_plus_uconst 8, DW_OP_stack_value] undef
	#DEBUG_VALUE: _S_do_relocate:__result <- [DW_OP_plus_uconst 8, DW_OP_stack_value] undef
	#DEBUG_VALUE: __relocate_a<unsigned long *, unsigned long *, std::allocator<unsigned long> >:__result <- [DW_OP_plus_uconst 8, DW_OP_stack_value] undef
	#DEBUG_VALUE: __relocate_a_1<unsigned long, unsigned long>:__result <- [DW_OP_plus_uconst 8, DW_OP_stack_value] undef
	#DEBUG_VALUE: _M_realloc_insert<const unsigned long &>:__new_finish <- [DW_OP_plus_uconst 8, DW_OP_stack_value] undef
	#DEBUG_VALUE: _M_realloc_insert<const unsigned long &>:__new_finish <- undef
	.loc	57 0 20 is_stmt 0       # /usr/lib/gcc/x86_64-linux-gnu/9/../../../../include/c++/9/bits/vector.tcc:0:20
	movq	%rsp, current_rsp
	movq	%r15, tmp_gpr1
	leaq	24(%rsp), %r15
	movq	checkpoint_sp, %rsp
	pushq	%r15
	pushq	(%r15)
	movq	%rsp, checkpoint_sp
	movq	tmp_gpr1, %r15
	movq	current_rsp, %rsp
	movq	%rdi, 24(%rsp)          # 8-byte Spill
.Ltmp132:
	.loc	8 147 4 is_stmt 1       # /usr/lib/gcc/x86_64-linux-gnu/9/../../../../include/c++/9/ext/new_allocator.h:147:4
	movq	%rsp, current_rsp
	leaq	asan_rtl_frame, %rsp
	callq	__asan_store8
	movq	current_rsp, %rsp
	#DEBUG_VALUE: _M_realloc_insert<const unsigned long &>:__position <- [DW_OP_deref] undef
	movq	%rsp, current_rsp
	movq	%r15, tmp_gpr1
	leaq	8(%rsp), %r15
	movq	checkpoint_sp, %rsp
	pushq	%r15
	pushq	(%r15)
	movq	%rsp, checkpoint_sp
	movq	tmp_gpr1, %r15
	movq	current_rsp, %rsp
	movq	%rbp, 8(%rsp)           # 8-byte Spill
.Ltmp133:
	#DEBUG_VALUE: _M_realloc_insert<const unsigned long &>:__new_start <- [DW_OP_plus_uconst 8] [$rsp+0]
	movq	%rsp, current_rsp
	movq	%r15, tmp_gpr1
	leaq	(%rbp,%r12,8), %r15
	movq	checkpoint_sp, %rsp
.Ltmp134:
	pushq	%r15
	pushq	(%r15)
	movq	%rsp, checkpoint_sp
	movq	tmp_gpr1, %r15
	movq	current_rsp, %rsp
	movq	%r14, (%rbp,%r12,8)
.Ltmp135:
	#DEBUG_VALUE: _S_relocate:__result <- [DW_OP_plus_uconst 8] [$rsp+0]
	#DEBUG_VALUE: _S_do_relocate:__result <- [DW_OP_plus_uconst 8] [$rsp+0]
	#DEBUG_VALUE: __relocate_a<unsigned long *, unsigned long *, std::allocator<unsigned long> >:__result <- [DW_OP_plus_uconst 8] [$rsp+0]
	#DEBUG_VALUE: __relocate_a_1<unsigned long, unsigned long>:__result <- [DW_OP_plus_uconst 8] [$rsp+0]
	.loc	53 928 19               # /usr/lib/gcc/x86_64-linux-gnu/9/../../../../include/c++/9/bits/stl_uninitialized.h:928:19
	testq	%r15, %r15
	movq	(%rsp), %rbp            # 8-byte Reload
.Ltmp136:
	.loc	53 928 11 is_stmt 0     # /usr/lib/gcc/x86_64-linux-gnu/9/../../../../include/c++/9/bits/stl_uninitialized.h:928:11
	movq	%rsp, current_rsp
	leaq	specfuzz_rtl_frame, %rsp
	callq	specfuzz_chkp
	movq	current_rsp, %rsp
	jmp	.LBB1_43
	jg	.LBB1_26
	jmp	.LBB1_25
.Ltmp137:
.LBB1_43:                               # %_ZNSt12_Vector_baseImSaImEE11_M_allocateEm.exit.i
                                        #   in Loop: Header=BB1_1 Depth=1
	jle	.LBB1_26
.LBB1_25:                               # %if.then.i.i.i.i44.i
                                        #   in Loop: Header=BB1_1 Depth=1
.Ltmp138:
	#DEBUG_VALUE: __relocate_a_1<unsigned long, unsigned long>:__result <- [DW_OP_plus_uconst 8] [$rsp+0]
	#DEBUG_VALUE: __relocate_a<unsigned long *, unsigned long *, std::allocator<unsigned long> >:__result <- [DW_OP_plus_uconst 8] [$rsp+0]
	#DEBUG_VALUE: _S_do_relocate:__result <- [DW_OP_plus_uconst 8] [$rsp+0]
	#DEBUG_VALUE: _S_relocate:__result <- [DW_OP_plus_uconst 8] [$rsp+0]
	#DEBUG_VALUE: _M_realloc_insert<const unsigned long &>:__new_start <- [DW_OP_plus_uconst 8] [$rsp+0]
	#DEBUG_VALUE: _M_realloc_insert<const unsigned long &>:__len <- $rbx
	#DEBUG_VALUE: _M_realloc_insert<const unsigned long &>:__elems_before <- $r12
	#DEBUG_VALUE: max_read_latency <- $r14
	.loc	53 929 2 is_stmt 1      # /usr/lib/gcc/x86_64-linux-gnu/9/../../../../include/c++/9/bits/stl_uninitialized.h:929:2
	subq	$4, instruction_counter
	movq	16(%rsp), %rdi          # 8-byte Reload
	movq	%rbp, %rsi
	movq	%r15, %rdx
	movq	%rsp, current_rsp
	leaq	specfuzz_rtl_frame, %rsp
	callq	specfuzz_rlbk_external_call
	movq	current_rsp, %rsp
	addw	$1, disable_speculation
	callq	__asan_memmove
	subw	$1, disable_speculation
.Ltmp139:
.LBB1_26:                               # %_ZNSt6vectorImSaImEE11_S_relocateEPmS2_S2_RS0_.exit.i
                                        #   in Loop: Header=BB1_1 Depth=1
	#DEBUG_VALUE: _M_realloc_insert<const unsigned long &>:__new_start <- [DW_OP_plus_uconst 8] [$rsp+0]
	#DEBUG_VALUE: _M_realloc_insert<const unsigned long &>:__len <- $rbx
	#DEBUG_VALUE: _M_realloc_insert<const unsigned long &>:__elems_before <- $r12
	#DEBUG_VALUE: max_read_latency <- $r14
	#DEBUG_VALUE: _M_realloc_insert<const unsigned long &>:__position <- [DW_OP_deref] undef
	#DEBUG_VALUE: _S_relocate:__last <- [DW_OP_deref] undef
	#DEBUG_VALUE: _S_do_relocate:__last <- [DW_OP_deref] undef
	#DEBUG_VALUE: __relocate_a<unsigned long *, unsigned long *, std::allocator<unsigned long> >:__last <- [DW_OP_deref] undef
	#DEBUG_VALUE: __relocate_a_1<unsigned long, unsigned long>:__last <- [DW_OP_deref] undef
	#DEBUG_VALUE: __relocate_a_1<unsigned long, unsigned long>:__count <- 0
	#DEBUG_VALUE: _M_deallocate:this <- undef
	.loc	12 350 6                # /usr/lib/gcc/x86_64-linux-gnu/9/../../../../include/c++/9/bits/stl_vector.h:350:6
	subq	$2, instruction_counter
	testq	%rbp, %rbp
.Ltmp140:
	.loc	12 350 6 is_stmt 0      # /usr/lib/gcc/x86_64-linux-gnu/9/../../../../include/c++/9/bits/stl_vector.h:350:6
	movq	%rsp, current_rsp
	leaq	specfuzz_rtl_frame, %rsp
	callq	specfuzz_chkp
	movq	current_rsp, %rsp
	jmp	.LBB1_44
	jne	.LBB1_28
	jmp	.LBB1_27
.Ltmp141:
.LBB1_44:                               # %_ZNSt6vectorImSaImEE11_S_relocateEPmS2_S2_RS0_.exit.i
                                        #   in Loop: Header=BB1_1 Depth=1
	je	.LBB1_28
.LBB1_27:                               # %if.then.i38.i
                                        #   in Loop: Header=BB1_1 Depth=1
.Ltmp142:
	#DEBUG_VALUE: _M_realloc_insert<const unsigned long &>:__new_start <- [DW_OP_plus_uconst 8] [$rsp+0]
	#DEBUG_VALUE: _M_realloc_insert<const unsigned long &>:__len <- $rbx
	#DEBUG_VALUE: _M_realloc_insert<const unsigned long &>:__elems_before <- $r12
	#DEBUG_VALUE: max_read_latency <- $r14
	#DEBUG_VALUE: deallocate:__a <- undef
	#DEBUG_VALUE: deallocate:this <- undef
	.loc	8 128 2 is_stmt 1       # /usr/lib/gcc/x86_64-linux-gnu/9/../../../../include/c++/9/ext/new_allocator.h:128:2
	subq	$2, instruction_counter
	movq	%rbp, %rdi
	movq	%rsp, current_rsp
	leaq	specfuzz_rtl_frame, %rsp
	callq	specfuzz_rlbk_external_call
	movq	current_rsp, %rsp
	addw	$1, disable_speculation
	callq	_ZdlPv
	subw	$1, disable_speculation
.Ltmp143:
.LBB1_28:                               # %.noexc
                                        #   in Loop: Header=BB1_1 Depth=1
	#DEBUG_VALUE: _M_realloc_insert<const unsigned long &>:__new_start <- [DW_OP_plus_uconst 8] [$rsp+0]
	#DEBUG_VALUE: _M_realloc_insert<const unsigned long &>:__len <- $rbx
	#DEBUG_VALUE: _M_realloc_insert<const unsigned long &>:__elems_before <- $r12
	#DEBUG_VALUE: max_read_latency <- $r14
	.loc	57 504 53               # /usr/lib/gcc/x86_64-linux-gnu/9/../../../../include/c++/9/bits/vector.tcc:504:53
	subq	$6, instruction_counter
	movq	8(%rsp), %rax           # 8-byte Reload
	leaq	(%rax,%rbx,8), %rax
.Ltmp144:
	.loc	14 0 0 is_stmt 0        # timing_array.cc:0:0
	movq	%rsp, current_rsp
	movq	%r15, tmp_gpr1
	leaq	8(%rsp), %r15
	movq	checkpoint_sp, %rsp
.Ltmp145:
	pushq	%r15
	pushq	(%r15)
	movq	%rsp, checkpoint_sp
	movq	tmp_gpr1, %r15
	movq	current_rsp, %rsp
	movq	%rax, 8(%rsp)           # 8-byte Spill
	movq	16(%rsp), %rax          # 8-byte Reload
	movq	%rsp, current_rsp
	movq	%r15, tmp_gpr1
	leaq	(%rsp), %r15
	movq	checkpoint_sp, %rsp
	pushq	%r15
	pushq	(%r15)
	movq	%rsp, checkpoint_sp
	movq	tmp_gpr1, %r15
	movq	current_rsp, %rsp
	movq	%rax, (%rsp)            # 8-byte Spill
.Ltmp146:
	movq	24(%rsp), %r15          # 8-byte Reload
.Ltmp147:
.LBB1_29:                               # %invoke.cont32
                                        #   in Loop: Header=BB1_1 Depth=1
	#DEBUG_VALUE: max_read_latency <- $r14
	subq	$4, instruction_counter
	addq	$8, %r15
.Ltmp148:
	#DEBUG_VALUE: sort<__gnu_cxx::__normal_iterator<unsigned long *, std::vector<unsigned long, std::allocator<unsigned long> > > >:__last <- $r15
	movq	32(%rsp), %rcx          # 8-byte Reload
.Ltmp149:
	.loc	14 130 35 is_stmt 1     # timing_array.cc:130:35
	addl	$1, %ecx
.Ltmp150:
	#DEBUG_VALUE: n <- $ecx
	.loc	14 130 21 is_stmt 0     # timing_array.cc:130:21
	cmpl	$1000, %ecx             # imm = 0x3E8
.Ltmp151:
	.loc	14 130 3                # timing_array.cc:130:3
	movq	%rsp, current_rsp
	leaq	specfuzz_rtl_frame, %rsp
	callq	specfuzz_chkp
	movq	current_rsp, %rsp
	jmp	.LBB1_45
	jae	.LBB1_1
	jmp	.LBB1_8
.Ltmp152:
.LBB1_45:                               # %invoke.cont32
                                        #   in Loop: Header=BB1_1 Depth=1
	jb	.LBB1_1
.Ltmp153:
.LBB1_8:                                # %for.cond.cleanup
	#DEBUG_VALUE: sort<__gnu_cxx::__normal_iterator<unsigned long *, std::vector<unsigned long, std::allocator<unsigned long> > > >:__last <- $r15
	#DEBUG_VALUE: FindCachedReadLatencyThreshold:max_read_latencies <- [DW_OP_deref] undef
	#DEBUG_VALUE: begin:this <- undef
	#DEBUG_VALUE: __normal_iterator:this <- undef
	#DEBUG_VALUE: __normal_iterator:__i <- undef
	#DEBUG_VALUE: deallocate:__p <- [$rsp+0]
	#DEBUG_VALUE: deallocate:__p <- [$rsp+0]
	#DEBUG_VALUE: _M_deallocate:__p <- [$rsp+0]
	#DEBUG_VALUE: __normal_iterator:this <- undef
	#DEBUG_VALUE: __normal_iterator:__i <- undef
	#DEBUG_VALUE: sort<__gnu_cxx::__normal_iterator<unsigned long *, std::vector<unsigned long, std::allocator<unsigned long> > > >:__first <- [$rsp+0]
	#DEBUG_VALUE: __sort<__gnu_cxx::__normal_iterator<unsigned long *, std::vector<unsigned long, std::allocator<unsigned long> > >, __gnu_cxx::__ops::_Iter_less_iter>:__first <- [DW_OP_deref] undef
	#DEBUG_VALUE: __sort<__gnu_cxx::__normal_iterator<unsigned long *, std::vector<unsigned long, std::allocator<unsigned long> > >, __gnu_cxx::__ops::_Iter_less_iter>:__last <- [DW_OP_deref] undef
	#DEBUG_VALUE: operator!=<unsigned long *, std::vector<unsigned long, std::allocator<unsigned long> > >:__lhs <- undef
	#DEBUG_VALUE: operator!=<unsigned long *, std::vector<unsigned long, std::allocator<unsigned long> > >:__rhs <- undef
	.loc	18 910 27 is_stmt 1     # /usr/lib/gcc/x86_64-linux-gnu/9/../../../../include/c++/9/bits/stl_iterator.h:910:27
	subq	$6, instruction_counter
	movq	%r15, %rbx
	movq	(%rsp), %rbp            # 8-byte Reload
	subq	%rbp, %rbx
.Ltmp154:
	.loc	14 0 0 is_stmt 0        # timing_array.cc:0:0
	sarq	$3, %rbx
.Ltmp155:
	#DEBUG_VALUE: __lg:__n <- $rbx
	.loc	18 910 27               # /usr/lib/gcc/x86_64-linux-gnu/9/../../../../include/c++/9/bits/stl_iterator.h:910:27
	cmpq	%rbp, %r15
.Ltmp156:
	#DEBUG_VALUE: sort<__gnu_cxx::__normal_iterator<unsigned long *, std::vector<unsigned long, std::allocator<unsigned long> > > >:__first <- [$rsp+0]
	.loc	16 1965 11 is_stmt 1    # /usr/lib/gcc/x86_64-linux-gnu/9/../../../../include/c++/9/bits/stl_algo.h:1965:11
	movq	%rsp, current_rsp
	leaq	specfuzz_rtl_frame, %rsp
	callq	specfuzz_chkp
	movq	current_rsp, %rsp
	jmp	.LBB1_46
	jne	.LBB1_11
	jmp	.LBB1_9
.Ltmp157:
.LBB1_46:                               # %for.cond.cleanup
	je	.LBB1_11
.LBB1_9:                                # %if.then.i.i89
.Ltmp158:
	#DEBUG_VALUE: __lg:__n <- $rbx
	#DEBUG_VALUE: sort<__gnu_cxx::__normal_iterator<unsigned long *, std::vector<unsigned long, std::allocator<unsigned long> > > >:__first <- [$rsp+0]
	#DEBUG_VALUE: sort<__gnu_cxx::__normal_iterator<unsigned long *, std::vector<unsigned long, std::allocator<unsigned long> > > >:__last <- $r15
	#DEBUG_VALUE: __sort<__gnu_cxx::__normal_iterator<unsigned long *, std::vector<unsigned long, std::allocator<unsigned long> > >, __gnu_cxx::__ops::_Iter_less_iter>:__first <- [DW_OP_deref] undef
	#DEBUG_VALUE: __sort<__gnu_cxx::__normal_iterator<unsigned long *, std::vector<unsigned long, std::allocator<unsigned long> > >, __gnu_cxx::__ops::_Iter_less_iter>:__last <- [DW_OP_deref] undef
	#DEBUG_VALUE: operator-<unsigned long *, std::vector<unsigned long, std::allocator<unsigned long> > >:__lhs <- undef
	#DEBUG_VALUE: operator-<unsigned long *, std::vector<unsigned long, std::allocator<unsigned long> > >:__rhs <- undef
	.loc	54 1029 51              # /usr/lib/gcc/x86_64-linux-gnu/9/../../../../include/c++/9/bits/stl_algobase.h:1029:51
	subq	$7, instruction_counter
	bsrq	%rbx, %rdx
	xorq	$63, %rdx
.Ltmp159:
	.loc	16 1968 33              # /usr/lib/gcc/x86_64-linux-gnu/9/../../../../include/c++/9/bits/stl_algo.h:1968:33
	addq	%rdx, %rdx
	xorq	$126, %rdx
.Ltmp74:
	.loc	16 1967 4               # /usr/lib/gcc/x86_64-linux-gnu/9/../../../../include/c++/9/bits/stl_algo.h:1967:4
	movq	%rbp, %rdi
	movq	%r15, %rsi
	movq	%rsp, current_rsp
	leaq	specfuzz_rtl_frame, %rsp
	callq	specfuzz_rlbk_external_call
	movq	current_rsp, %rsp
	addw	$1, disable_speculation
	callq	_ZSt16__introsort_loopIN9__gnu_cxx17__normal_iteratorIPmSt6vectorImSaImEEEElNS0_5__ops15_Iter_less_iterEEvT_S9_T0_T1_
	subw	$1, disable_speculation
.Ltmp75:
.Ltmp160:
# %bb.10:                               # %.noexc90
	#DEBUG_VALUE: sort<__gnu_cxx::__normal_iterator<unsigned long *, std::vector<unsigned long, std::allocator<unsigned long> > > >:__first <- [$rsp+0]
	#DEBUG_VALUE: sort<__gnu_cxx::__normal_iterator<unsigned long *, std::vector<unsigned long, std::allocator<unsigned long> > > >:__last <- $r15
.Ltmp76:
	.loc	16 1970 4               # /usr/lib/gcc/x86_64-linux-gnu/9/../../../../include/c++/9/bits/stl_algo.h:1970:4
	subq	$3, instruction_counter
	movq	%rbp, %rdi
	movq	%r15, %rsi
	movq	%rsp, current_rsp
	leaq	specfuzz_rtl_frame, %rsp
	callq	specfuzz_rlbk_external_call
	movq	current_rsp, %rsp
	addw	$1, disable_speculation
	callq	_ZSt22__final_insertion_sortIN9__gnu_cxx17__normal_iteratorIPmSt6vectorImSaImEEEENS0_5__ops15_Iter_less_iterEEvT_S9_T0_
	subw	$1, disable_speculation
.Ltmp77:
.Ltmp161:
.LBB1_11:                               # %invoke.cont45
	#DEBUG_VALUE: FindCachedReadLatencyThreshold:max_read_latencies <- [DW_OP_deref] undef
	#DEBUG_VALUE: size:this <- undef
	.loc	14 148 65               # timing_array.cc:148:65
	subq	$14, instruction_counter
	addq	$-1, %rbx
	.loc	14 148 38 is_stmt 0     # timing_array.cc:148:38
	movq	%rbx, %xmm0
	punpckldq	.LCPI1_0(%rip), %xmm0 # xmm0 = xmm0[0],mem[0],xmm0[1],mem[1]
	subpd	.LCPI1_1(%rip), %xmm0
	pshufd	$78, %xmm0, %xmm1       # xmm1 = xmm0[2,3,0,1]
	addpd	%xmm0, %xmm1
	.loc	14 148 36               # timing_array.cc:148:36
	mulsd	.LCPI1_2(%rip), %xmm1
	.loc	14 148 15               # timing_array.cc:148:15
	cvttsd2si	%xmm1, %eax
.Ltmp162:
	#DEBUG_VALUE: FindCachedReadLatencyThreshold:index <- $eax
	.loc	14 149 29 is_stmt 1     # timing_array.cc:149:29
	movslq	%eax, %rbx
.Ltmp163:
	#DEBUG_VALUE: operator[]:this <- undef
	#DEBUG_VALUE: operator[]:__n <- $rbx
	#DEBUG_VALUE: FindCachedReadLatencyThreshold:max_read_latencies <- [DW_OP_deref] undef
	.loc	12 1043 34              # /usr/lib/gcc/x86_64-linux-gnu/9/../../../../include/c++/9/bits/stl_vector.h:1043:34
	leaq	(,%rbx,8), %rdi
	addq	%rbp, %rdi
.Ltmp164:
	.loc	14 149 10               # timing_array.cc:149:10
	movq	%rsp, current_rsp
	leaq	asan_rtl_frame, %rsp
	callq	__asan_load8
.Ltmp165:
	movq	current_rsp, %rsp
	movq	(%rbp,%rbx,8), %rbx
.Ltmp166:
	#DEBUG_VALUE: _M_deallocate:this <- undef
	#DEBUG_VALUE: ~_Vector_base:this <- undef
	#DEBUG_VALUE: ~vector:this <- undef
	#DEBUG_VALUE: FindCachedReadLatencyThreshold:max_read_latencies <- [DW_OP_deref] undef
	.loc	12 350 6                # /usr/lib/gcc/x86_64-linux-gnu/9/../../../../include/c++/9/bits/stl_vector.h:350:6
	testq	%rbp, %rbp
.Ltmp167:
	.loc	12 350 6 is_stmt 0      # /usr/lib/gcc/x86_64-linux-gnu/9/../../../../include/c++/9/bits/stl_vector.h:350:6
	movq	%rsp, current_rsp
	leaq	specfuzz_rtl_frame, %rsp
	callq	specfuzz_chkp
	movq	current_rsp, %rsp
	jmp	.LBB1_47
	jne	.LBB1_13
	jmp	.LBB1_12
.LBB1_47:                               # %invoke.cont45
	je	.LBB1_13
.LBB1_12:                               # %if.then.i.i.i74
.Ltmp168:
	#DEBUG_VALUE: deallocate:__a <- undef
	#DEBUG_VALUE: deallocate:this <- undef
	.loc	8 128 2 is_stmt 1       # /usr/lib/gcc/x86_64-linux-gnu/9/../../../../include/c++/9/ext/new_allocator.h:128:2
	subq	$2, instruction_counter
	movq	%rbp, %rdi
	movq	%rsp, current_rsp
	leaq	specfuzz_rtl_frame, %rsp
	callq	specfuzz_rlbk_external_call
	movq	current_rsp, %rsp
	addw	$1, disable_speculation
	callq	_ZdlPv
	subw	$1, disable_speculation
.Ltmp169:
.LBB1_13:                               # %_ZNSt6vectorImSaImEED2Ev.exit75
	.loc	14 150 1                # timing_array.cc:150:1
	subq	$9, instruction_counter
	movq	%rbx, %rax
	addq	$40, %rsp
	.cfi_def_cfa_offset 56
	popq	%rbx
	.cfi_def_cfa_offset 48
	popq	%r12
	.cfi_def_cfa_offset 40
	popq	%r13
	.cfi_def_cfa_offset 32
	popq	%r14
	.cfi_def_cfa_offset 24
	popq	%r15
	.cfi_def_cfa_offset 16
	popq	%rbp
	.cfi_def_cfa_offset 8
	movq	%rdi, tmp_gpr1
	movq	(%rsp), %rdi
	movq	%rsp, current_rsp
	leaq	specfuzz_rtl_frame, %rsp
	callq	specfuzz_check_code_pointer
	movq	current_rsp, %rsp
	movq	tmp_gpr1, %rdi
	retq
.LBB1_15:                               # %if.then.i.i
	.cfi_def_cfa_offset 96
.Ltmp170:
	#DEBUG_VALUE: max_read_latency <- $r14
	.loc	12 1756 4               # /usr/lib/gcc/x86_64-linux-gnu/9/../../../../include/c++/9/bits/stl_vector.h:1756:4
	subq	$3, instruction_counter
	movq	%rsp, current_rsp
	leaq	specfuzz_rtl_frame, %rsp
	callq	specfuzz_rlbk_external_call
	movq	current_rsp, %rsp
	addw	$1, disable_speculation
	callq	__asan_handle_no_return
	subw	$1, disable_speculation
.Ltmp79:
	movl	$.str.1, %edi
.Ltmp171:
	#DEBUG_VALUE: _M_check_len:__s <- $rdi
	movq	%rsp, current_rsp
	leaq	specfuzz_rtl_frame, %rsp
	callq	specfuzz_rlbk_external_call
	movq	current_rsp, %rsp
	addw	$1, disable_speculation
	callq	_ZSt20__throw_length_errorPKc
.Ltmp172:
	subw	$1, disable_speculation
.Ltmp80:
.Ltmp173:
# %bb.16:                               # %.noexc84
.LBB1_20:                               # %if.then.i.i.i.i
	#DEBUG_VALUE: allocate:__n <- $rbx
	#DEBUG_VALUE: allocate:__n <- $rbx
	#DEBUG_VALUE: _M_realloc_insert<const unsigned long &>:__len <- $rbx
	#DEBUG_VALUE: _M_allocate:__n <- $rbx
	#DEBUG_VALUE: _M_realloc_insert<const unsigned long &>:__elems_before <- $r12
	#DEBUG_VALUE: max_read_latency <- $r14
	.loc	8 105 4                 # /usr/lib/gcc/x86_64-linux-gnu/9/../../../../include/c++/9/ext/new_allocator.h:105:4
	subq	$2, instruction_counter
	movq	%rsp, current_rsp
	leaq	specfuzz_rtl_frame, %rsp
	callq	specfuzz_rlbk_external_call
	movq	current_rsp, %rsp
	addw	$1, disable_speculation
	callq	__asan_handle_no_return
	subw	$1, disable_speculation
.Ltmp72:
	movq	%rsp, current_rsp
	leaq	specfuzz_rtl_frame, %rsp
	callq	specfuzz_rlbk_external_call
	movq	current_rsp, %rsp
	addw	$1, disable_speculation
	callq	_ZSt17__throw_bad_allocv
	subw	$1, disable_speculation
.Ltmp73:
.Ltmp174:
# %bb.21:                               # %.noexc85
.LBB1_31:                               # %lpad31.loopexit.split-lp
.Ltmp81:
	.loc	8 0 4 is_stmt 0         # /usr/lib/gcc/x86_64-linux-gnu/9/../../../../include/c++/9/ext/new_allocator.h:0:4
	subq	$4, instruction_counter
	movq	%rax, %rbx
	#DEBUG_VALUE: FindCachedReadLatencyThreshold:max_read_latencies <- [DW_OP_deref] undef
.Ltmp175:
	#DEBUG_VALUE: ~vector:this <- undef
	#DEBUG_VALUE: ~_Vector_base:this <- undef
	#DEBUG_VALUE: _M_deallocate:this <- undef
	movq	(%rsp), %rdi            # 8-byte Reload
.Ltmp176:
	.loc	12 350 6 is_stmt 1      # /usr/lib/gcc/x86_64-linux-gnu/9/../../../../include/c++/9/bits/stl_vector.h:350:6
	testq	%rdi, %rdi
.Ltmp177:
	.loc	12 350 6 is_stmt 0      # /usr/lib/gcc/x86_64-linux-gnu/9/../../../../include/c++/9/bits/stl_vector.h:350:6
	movq	%rsp, current_rsp
	leaq	specfuzz_rtl_frame, %rsp
	callq	specfuzz_chkp
	movq	current_rsp, %rsp
	jmp	.LBB1_48
	je	.LBB1_34
	jmp	.LBB1_35
.LBB1_48:                               # %lpad31.loopexit.split-lp
	jne	.LBB1_34
	jmp	.LBB1_35
.LBB1_32:                               # %lpad44
.Ltmp78:
	.loc	12 0 6                  # /usr/lib/gcc/x86_64-linux-gnu/9/../../../../include/c++/9/bits/stl_vector.h:0:6
	subq	$4, instruction_counter
	movq	%rax, %rbx
	#DEBUG_VALUE: FindCachedReadLatencyThreshold:max_read_latencies <- [DW_OP_deref] undef
	#DEBUG_VALUE: ~vector:this <- undef
	#DEBUG_VALUE: ~_Vector_base:this <- undef
	#DEBUG_VALUE: _M_deallocate:this <- undef
	movq	(%rsp), %rdi            # 8-byte Reload
.Ltmp178:
	.loc	12 350 6                # /usr/lib/gcc/x86_64-linux-gnu/9/../../../../include/c++/9/bits/stl_vector.h:350:6
	testq	%rdi, %rdi
.Ltmp179:
	.loc	12 350 6                # /usr/lib/gcc/x86_64-linux-gnu/9/../../../../include/c++/9/bits/stl_vector.h:350:6
	movq	%rsp, current_rsp
	leaq	specfuzz_rtl_frame, %rsp
	callq	specfuzz_chkp
	movq	current_rsp, %rsp
	jmp	.LBB1_49
	je	.LBB1_34
	jmp	.LBB1_35
.LBB1_49:                               # %lpad44
	jne	.LBB1_34
	jmp	.LBB1_35
.LBB1_30:                               # %lpad31.loopexit
.Ltmp71:
	.loc	12 0 6                  # /usr/lib/gcc/x86_64-linux-gnu/9/../../../../include/c++/9/bits/stl_vector.h:0:6
	subq	$4, instruction_counter
	movq	%rax, %rbx
	#DEBUG_VALUE: FindCachedReadLatencyThreshold:max_read_latencies <- [DW_OP_deref] undef
	#DEBUG_VALUE: ~vector:this <- undef
	#DEBUG_VALUE: ~_Vector_base:this <- undef
	#DEBUG_VALUE: _M_deallocate:this <- undef
	movq	(%rsp), %rdi            # 8-byte Reload
.Ltmp180:
	.loc	12 350 6                # /usr/lib/gcc/x86_64-linux-gnu/9/../../../../include/c++/9/bits/stl_vector.h:350:6
	testq	%rdi, %rdi
.Ltmp181:
	.loc	12 350 6                # /usr/lib/gcc/x86_64-linux-gnu/9/../../../../include/c++/9/bits/stl_vector.h:350:6
	movq	%rsp, current_rsp
	leaq	specfuzz_rtl_frame, %rsp
	callq	specfuzz_chkp
	movq	current_rsp, %rsp
	jmp	.LBB1_50
	je	.LBB1_34
	jmp	.LBB1_35
.LBB1_50:                               # %lpad31.loopexit
	jne	.LBB1_34
	jmp	.LBB1_35
.LBB1_36:                               # %lpad21
.Ltmp68:
	.loc	12 0 6                  # /usr/lib/gcc/x86_64-linux-gnu/9/../../../../include/c++/9/bits/stl_vector.h:0:6
	subq	$3, instruction_counter
	movq	%rax, %rbx
	#DEBUG_VALUE: FindCachedReadLatencyThreshold:max_read_latencies <- [DW_OP_deref] undef
	#DEBUG_VALUE: ~vector:this <- undef
	#DEBUG_VALUE: ~_Vector_base:this <- undef
	#DEBUG_VALUE: _M_deallocate:this <- undef
	movq	(%rsp), %rdi            # 8-byte Reload
.Ltmp182:
	.loc	12 350 6                # /usr/lib/gcc/x86_64-linux-gnu/9/../../../../include/c++/9/bits/stl_vector.h:350:6
	testq	%rdi, %rdi
.Ltmp183:
	.loc	12 350 6                # /usr/lib/gcc/x86_64-linux-gnu/9/../../../../include/c++/9/bits/stl_vector.h:350:6
	je	.LBB1_35
.LBB1_34:                               # %if.then.i.i.i
.Ltmp184:
	#DEBUG_VALUE: deallocate:__a <- undef
	#DEBUG_VALUE: deallocate:this <- undef
	#DEBUG_VALUE: _M_deallocate:__p <- $rdi
	#DEBUG_VALUE: deallocate:__p <- $rdi
	#DEBUG_VALUE: deallocate:__p <- $rdi
	.loc	8 128 2 is_stmt 1       # /usr/lib/gcc/x86_64-linux-gnu/9/../../../../include/c++/9/ext/new_allocator.h:128:2
	subq	$1, instruction_counter
	movq	%rsp, current_rsp
	leaq	specfuzz_rtl_frame, %rsp
	callq	specfuzz_rlbk_external_call
	movq	current_rsp, %rsp
	addw	$1, disable_speculation
	callq	_ZdlPv
.Ltmp185:
	subw	$1, disable_speculation
.Ltmp186:
.LBB1_35:                               # %_ZNSt6vectorImSaImEED2Ev.exit
	.loc	8 0 2 is_stmt 0         # /usr/lib/gcc/x86_64-linux-gnu/9/../../../../include/c++/9/ext/new_allocator.h:0:2
	subq	$2, instruction_counter
	movq	%rbx, %rdi
	movq	%rsp, current_rsp
	leaq	specfuzz_rtl_frame, %rsp
	callq	specfuzz_rlbk_external_call
	movq	current_rsp, %rsp
	addw	$1, disable_speculation
	callq	_Unwind_Resume
	subw	$1, disable_speculation
.Lfunc_end1:
	.size	_ZN11TimingArray30FindCachedReadLatencyThresholdEv, .Lfunc_end1-_ZN11TimingArray30FindCachedReadLatencyThresholdEv
	.cfi_endproc
	.file	58 "/usr/lib/gcc/x86_64-linux-gnu/9/../../../../include/c++/9/bits/algorithmfwd.h"
	.file	59 "/usr/lib/gcc/x86_64-linux-gnu/9/../../../../include/c++/9/bits/predefined_ops.h"
	.section	.gcc_except_table,"a",@progbits
	.p2align	2
GCC_except_table1:
.Lexception1:
	.byte	255                     # @LPStart Encoding = omit
	.byte	255                     # @TType Encoding = omit
	.byte	1                       # Call site Encoding = uleb128
	.uleb128 .Lcst_end1-.Lcst_begin1
.Lcst_begin1:
	.uleb128 .Lfunc_begin1-.Lfunc_begin1 # >> Call Site 1 <<
	.uleb128 .Ltmp66-.Lfunc_begin1  #   Call between .Lfunc_begin1 and .Ltmp66
	.byte	0                       #     has no landing pad
	.byte	0                       #   On action: cleanup
	.uleb128 .Ltmp66-.Lfunc_begin1  # >> Call Site 2 <<
	.uleb128 .Ltmp67-.Ltmp66        #   Call between .Ltmp66 and .Ltmp67
	.uleb128 .Ltmp68-.Lfunc_begin1  #     jumps to .Ltmp68
	.byte	0                       #   On action: cleanup
	.uleb128 .Ltmp67-.Lfunc_begin1  # >> Call Site 3 <<
	.uleb128 .Ltmp69-.Ltmp67        #   Call between .Ltmp67 and .Ltmp69
	.byte	0                       #     has no landing pad
	.byte	0                       #   On action: cleanup
	.uleb128 .Ltmp69-.Lfunc_begin1  # >> Call Site 4 <<
	.uleb128 .Ltmp70-.Ltmp69        #   Call between .Ltmp69 and .Ltmp70
	.uleb128 .Ltmp71-.Lfunc_begin1  #     jumps to .Ltmp71
	.byte	0                       #   On action: cleanup
	.uleb128 .Ltmp70-.Lfunc_begin1  # >> Call Site 5 <<
	.uleb128 .Ltmp74-.Ltmp70        #   Call between .Ltmp70 and .Ltmp74
	.byte	0                       #     has no landing pad
	.byte	0                       #   On action: cleanup
	.uleb128 .Ltmp74-.Lfunc_begin1  # >> Call Site 6 <<
	.uleb128 .Ltmp77-.Ltmp74        #   Call between .Ltmp74 and .Ltmp77
	.uleb128 .Ltmp78-.Lfunc_begin1  #     jumps to .Ltmp78
	.byte	0                       #   On action: cleanup
	.uleb128 .Ltmp77-.Lfunc_begin1  # >> Call Site 7 <<
	.uleb128 .Ltmp79-.Ltmp77        #   Call between .Ltmp77 and .Ltmp79
	.byte	0                       #     has no landing pad
	.byte	0                       #   On action: cleanup
	.uleb128 .Ltmp79-.Lfunc_begin1  # >> Call Site 8 <<
	.uleb128 .Ltmp80-.Ltmp79        #   Call between .Ltmp79 and .Ltmp80
	.uleb128 .Ltmp81-.Lfunc_begin1  #     jumps to .Ltmp81
	.byte	0                       #   On action: cleanup
	.uleb128 .Ltmp80-.Lfunc_begin1  # >> Call Site 9 <<
	.uleb128 .Ltmp72-.Ltmp80        #   Call between .Ltmp80 and .Ltmp72
	.byte	0                       #     has no landing pad
	.byte	0                       #   On action: cleanup
	.uleb128 .Ltmp72-.Lfunc_begin1  # >> Call Site 10 <<
	.uleb128 .Ltmp73-.Ltmp72        #   Call between .Ltmp72 and .Ltmp73
	.uleb128 .Ltmp81-.Lfunc_begin1  #     jumps to .Ltmp81
	.byte	0                       #   On action: cleanup
	.uleb128 .Ltmp73-.Lfunc_begin1  # >> Call Site 11 <<
	.uleb128 .Lfunc_end1-.Ltmp73    #   Call between .Ltmp73 and .Lfunc_end1
	.byte	0                       #     has no landing pad
	.byte	0                       #   On action: cleanup
.Lcst_end1:
	.p2align	2
                                        # -- End function
	.text
	.globl	_ZN11TimingArray14FlushFromCacheEv # -- Begin function _ZN11TimingArray14FlushFromCacheEv
	.p2align	4, 0x90
	.type	_ZN11TimingArray14FlushFromCacheEv,@function
_ZN11TimingArray14FlushFromCacheEv:     # @_ZN11TimingArray14FlushFromCacheEv
.Lfunc_begin2:
	.loc	14 40 0 is_stmt 1       # timing_array.cc:40:0
	.cfi_startproc
# %bb.0:                                # %entry
	nopl	42(%rbx)
	subq	$6, instruction_counter
	movq	%rsp, current_rsp
	movq	%r15, tmp_gpr1
	leaq	-8(%rsp), %r15
	movq	checkpoint_sp, %rsp
	pushq	%r15
	pushq	(%r15)
	movq	%rsp, checkpoint_sp
	movq	tmp_gpr1, %r15
	movq	current_rsp, %rsp
	pushq	%r15
	.cfi_def_cfa_offset 16
	movq	%rsp, current_rsp
	movq	%r15, tmp_gpr1
	leaq	-8(%rsp), %r15
	movq	checkpoint_sp, %rsp
	pushq	%r15
	pushq	(%r15)
	movq	%rsp, checkpoint_sp
	movq	tmp_gpr1, %r15
	movq	current_rsp, %rsp
	pushq	%r14
	.cfi_def_cfa_offset 24
	movq	%rsp, current_rsp
	movq	%r15, tmp_gpr1
	leaq	-8(%rsp), %r15
	movq	checkpoint_sp, %rsp
	pushq	%r15
	pushq	(%r15)
	movq	%rsp, checkpoint_sp
	movq	tmp_gpr1, %r15
	movq	current_rsp, %rsp
	pushq	%rbx
	.cfi_def_cfa_offset 32
	.cfi_offset %rbx, -32
	.cfi_offset %r14, -24
	.cfi_offset %r15, -16
	#DEBUG_VALUE: FlushFromCache:this <- $rdi
	movq	%rdi, %r14
.Ltmp187:
	#DEBUG_VALUE: FlushFromCache:this <- $r14
	addq	$8, %r14
.Ltmp188:
	movl	$213, %ebx
.Ltmp189:
	#DEBUG_VALUE: i <- 0
	.p2align	4, 0x90
.LBB2_1:                                # %for.body
                                        # =>This Inner Loop Header: Depth=1
	#DEBUG_VALUE: i <- undef
	#DEBUG_VALUE: ElementAt:i <- undef
	#DEBUG_VALUE: operator[]:i <- undef
	.loc	2 87 31 prologue_end    # ./timing_array.h:87:31
	subq	$1, instruction_counter
	leal	-113(%rbx), %eax
	movq	%rsp, current_rsp
	leaq	specfuzz_rtl_frame, %rsp
	callq	specfuzz_rlbk_if_done
	movq	current_rsp, %rsp
	subq	$15, instruction_counter
	orl	$1, %eax
	.loc	2 90 24                 # ./timing_array.h:90:24
	movzbl	%al, %r15d
.Ltmp190:
	#DEBUG_VALUE: operator[]:__n <- $r15
	.loc	12 1043 25              # /usr/lib/gcc/x86_64-linux-gnu/9/../../../../include/c++/9/bits/stl_vector.h:1043:25
	movq	%r14, %rdi
	movq	%rsp, current_rsp
	leaq	asan_rtl_frame, %rsp
	callq	__asan_load8
	movq	current_rsp, %rsp
	movq	(%r14), %rax
.Ltmp191:
	.loc	2 90 45                 # ./timing_array.h:90:45
	imulq	$4160, %r15, %rcx       # imm = 0x1040
.Ltmp192:
	.file	60 "/usr/local/google/home/zbrid/sanitizer/safeside/demos/spectre_v1/./instr_x86.h"
	.loc	60 32 3                 # ./instr_x86.h:32:3
	movq	%rsp, current_rsp
	movq	%r15, tmp_gpr1
	leaq	(%rax,%rcx), %r15
.Ltmp193:
	movq	checkpoint_sp, %rsp
	pushq	%r15
	pushq	(%r15)
	movq	%rsp, checkpoint_sp
	movq	tmp_gpr1, %r15
	movq	current_rsp, %rsp
	clflush	(%rax,%rcx)
.Ltmp194:
	#DEBUG_VALUE: i <- [DW_OP_plus_uconst 1, DW_OP_stack_value] undef
	.loc	2 87 31                 # ./timing_array.h:87:31
	movzbl	%bl, %eax
.Ltmp195:
	#DEBUG_VALUE: operator[]:el <- $rax
	.loc	2 90 24                 # ./timing_array.h:90:24
	imulq	$4160, %rax, %r15       # imm = 0x1040
.Ltmp196:
	.loc	12 1043 25              # /usr/lib/gcc/x86_64-linux-gnu/9/../../../../include/c++/9/bits/stl_vector.h:1043:25
	movq	%r14, %rdi
	movq	%rsp, current_rsp
	leaq	asan_rtl_frame, %rsp
	callq	__asan_load8
.Ltmp197:
	movq	current_rsp, %rsp
	movq	(%r14), %rax
.Ltmp198:
	.loc	60 32 3                 # ./instr_x86.h:32:3
	movq	%rsp, current_rsp
	movq	%r15, tmp_gpr1
	leaq	4160(%rax,%r15), %r15
	movq	checkpoint_sp, %rsp
	pushq	%r15
	pushq	(%r15)
	movq	%rsp, checkpoint_sp
	movq	tmp_gpr1, %r15
	movq	current_rsp, %rsp
	clflush	4160(%rax,%r15)
.Ltmp199:
	#DEBUG_VALUE: i <- [DW_OP_plus_uconst 1, DW_OP_stack_value] undef
	.loc	14 42 21                # timing_array.cc:42:21
	addq	$226, %rbx
	cmpq	$29141, %rbx            # imm = 0x71D5
.Ltmp200:
	.loc	14 42 3 is_stmt 0       # timing_array.cc:42:3
	movq	%rsp, current_rsp
	leaq	specfuzz_rtl_frame, %rsp
	callq	specfuzz_chkp
	movq	current_rsp, %rsp
	jmp	.LBB2_3
	je	.LBB2_1
	jmp	.LBB2_2
.LBB2_3:                                # %for.body
                                        #   in Loop: Header=BB2_1 Depth=1
	jne	.LBB2_1
.Ltmp201:
.LBB2_2:                                # %for.cond.cleanup
	.loc	60 27 3 is_stmt 1       # ./instr_x86.h:27:3
	subq	$6, instruction_counter
	mfence
	.loc	60 28 3                 # ./instr_x86.h:28:3
	movq	%rsp, current_rsp
	leaq	specfuzz_rtl_frame, %rsp
	callq	specfuzz_rlbk_serializing
	movq	current_rsp, %rsp
	lfence
.Ltmp202:
	.loc	14 48 1                 # timing_array.cc:48:1
	popq	%rbx
	.cfi_def_cfa_offset 24
	popq	%r14
	.cfi_def_cfa_offset 16
	popq	%r15
	.cfi_def_cfa_offset 8
	movq	%rdi, tmp_gpr1
	movq	(%rsp), %rdi
	movq	%rsp, current_rsp
	leaq	specfuzz_rtl_frame, %rsp
	callq	specfuzz_check_code_pointer
	movq	current_rsp, %rsp
	movq	tmp_gpr1, %rdi
	retq
.Ltmp203:
.Lfunc_end2:
	.size	_ZN11TimingArray14FlushFromCacheEv, .Lfunc_end2-_ZN11TimingArray14FlushFromCacheEv
	.cfi_endproc
                                        # -- End function
	.globl	_ZN11TimingArray32FindFirstCachedElementIndexAfterEi # -- Begin function _ZN11TimingArray32FindFirstCachedElementIndexAfterEi
	.p2align	4, 0x90
	.type	_ZN11TimingArray32FindFirstCachedElementIndexAfterEi,@function
_ZN11TimingArray32FindFirstCachedElementIndexAfterEi: # @_ZN11TimingArray32FindFirstCachedElementIndexAfterEi
.Lfunc_begin3:
	.loc	14 50 0                 # timing_array.cc:50:0
	.cfi_startproc
# %bb.0:                                # %entry
	.loc	14 52 19 prologue_end   # timing_array.cc:52:19
	nopl	42(%rbx)
	subq	$8, instruction_counter
	movq	%rsp, current_rsp
	movq	%r15, tmp_gpr1
	leaq	-8(%rsp), %r15
	movq	checkpoint_sp, %rsp
	pushq	%r15
	pushq	(%r15)
	movq	%rsp, checkpoint_sp
	movq	tmp_gpr1, %r15
	movq	current_rsp, %rsp
	pushq	%rbp
	.cfi_def_cfa_offset 16
	movq	%rsp, current_rsp
	movq	%r15, tmp_gpr1
	leaq	-8(%rsp), %r15
	movq	checkpoint_sp, %rsp
	pushq	%r15
	pushq	(%r15)
	movq	%rsp, checkpoint_sp
	movq	tmp_gpr1, %r15
	movq	current_rsp, %rsp
	pushq	%r15
	.cfi_def_cfa_offset 24
	movq	%rsp, current_rsp
	movq	%r15, tmp_gpr1
	leaq	-8(%rsp), %r15
	movq	checkpoint_sp, %rsp
	pushq	%r15
	pushq	(%r15)
	movq	%rsp, checkpoint_sp
	movq	tmp_gpr1, %r15
	movq	current_rsp, %rsp
	pushq	%r14
	.cfi_def_cfa_offset 32
	movq	%rsp, current_rsp
	movq	%r15, tmp_gpr1
	leaq	-8(%rsp), %r15
	movq	checkpoint_sp, %rsp
	pushq	%r15
	pushq	(%r15)
	movq	%rsp, checkpoint_sp
	movq	tmp_gpr1, %r15
	movq	current_rsp, %rsp
	pushq	%r13
	.cfi_def_cfa_offset 40
	movq	%rsp, current_rsp
	movq	%r15, tmp_gpr1
	leaq	-8(%rsp), %r15
	movq	checkpoint_sp, %rsp
	pushq	%r15
	pushq	(%r15)
	movq	%rsp, checkpoint_sp
	movq	tmp_gpr1, %r15
	movq	current_rsp, %rsp
	pushq	%r12
	.cfi_def_cfa_offset 48
	movq	%rsp, current_rsp
	movq	%r15, tmp_gpr1
	leaq	-8(%rsp), %r15
	movq	checkpoint_sp, %rsp
	pushq	%r15
	pushq	(%r15)
	movq	%rsp, checkpoint_sp
	movq	tmp_gpr1, %r15
	movq	current_rsp, %rsp
	pushq	%rbx
	.cfi_def_cfa_offset 56
	movq	%rsp, current_rsp
	movq	%r15, tmp_gpr1
	leaq	-8(%rsp), %r15
	movq	checkpoint_sp, %rsp
	pushq	%r15
	pushq	(%r15)
	movq	%rsp, checkpoint_sp
	movq	tmp_gpr1, %r15
	movq	current_rsp, %rsp
	pushq	%rax
	.cfi_def_cfa_offset 64
	.cfi_offset %rbx, -56
	.cfi_offset %r12, -48
	.cfi_offset %r13, -40
	.cfi_offset %r14, -32
	.cfi_offset %r15, -24
	.cfi_offset %rbp, -16
	#DEBUG_VALUE: FindFirstCachedElementIndexAfter:this <- $rdi
	#DEBUG_VALUE: FindFirstCachedElementIndexAfter:start_after <- $esi
.Ltmp204:
	#DEBUG_VALUE: ElementAt:this <- $rdi
	#DEBUG_VALUE: operator[]:this <- $rdi
	#DEBUG_VALUE: operator[]:this <- [DW_OP_plus_uconst 8, DW_OP_stack_value] $rdi
	cmpl	$255, %esi
.Ltmp205:
	.loc	14 52 7 is_stmt 0       # timing_array.cc:52:7
	movq	%rsp, current_rsp
	leaq	specfuzz_rtl_frame, %rsp
	callq	specfuzz_chkp
	movq	current_rsp, %rsp
	jmp	.LBB3_7
	jbe	.LBB3_5
	jmp	.LBB3_1
.Ltmp206:
.LBB3_7:                                # %entry
	ja	.LBB3_5
.LBB3_1:                                # %for.cond.preheader
.Ltmp207:
	#DEBUG_VALUE: operator[]:this <- [DW_OP_plus_uconst 8, DW_OP_stack_value] $rdi
	#DEBUG_VALUE: operator[]:this <- $rdi
	#DEBUG_VALUE: ElementAt:this <- $rdi
	#DEBUG_VALUE: FindFirstCachedElementIndexAfter:start_after <- $esi
	#DEBUG_VALUE: FindFirstCachedElementIndexAfter:this <- $rdi
	.loc	14 0 7                  # timing_array.cc:0:7
	subq	$6, instruction_counter
	movl	%esi, %r14d
.Ltmp208:
	#DEBUG_VALUE: FindFirstCachedElementIndexAfter:start_after <- $r14d
	movq	%rdi, %r12
.Ltmp209:
	#DEBUG_VALUE: operator[]:this <- [DW_OP_plus_uconst 8, DW_OP_stack_value] $r12
	#DEBUG_VALUE: operator[]:this <- $r12
	#DEBUG_VALUE: ElementAt:this <- $r12
	#DEBUG_VALUE: FindFirstCachedElementIndexAfter:this <- $r12
	leaq	8(%rdi), %rax
.Ltmp210:
	.loc	14 58 3 is_stmt 1       # timing_array.cc:58:3
	movq	%rsp, current_rsp
	movq	%r15, tmp_gpr1
	leaq	(%rsp), %r15
	movq	checkpoint_sp, %rsp
	pushq	%r15
	pushq	(%r15)
	movq	%rsp, checkpoint_sp
	movq	tmp_gpr1, %r15
	movq	current_rsp, %rsp
	movq	%rax, (%rsp)            # 8-byte Spill
.Ltmp211:
	#DEBUG_VALUE: i <- 1
	addl	$1, %r14d
.Ltmp212:
	.loc	14 0 3 is_stmt 0        # timing_array.cc:0:3
	xorl	%ebx, %ebx
.Ltmp213:
	.p2align	4, 0x90
.LBB3_2:                                # %for.body
                                        # =>This Inner Loop Header: Depth=1
	#DEBUG_VALUE: FindFirstCachedElementIndexAfter:this <- $r12
	#DEBUG_VALUE: ElementAt:this <- $r12
	#DEBUG_VALUE: operator[]:this <- $r12
	#DEBUG_VALUE: operator[]:this <- [DW_OP_plus_uconst 8, DW_OP_stack_value] $r12
	#DEBUG_VALUE: i <- undef
	.loc	14 59 32 is_stmt 1      # timing_array.cc:59:32
	subq	$15, instruction_counter
	leal	(%r14,%rbx), %eax
	movzbl	%al, %r15d
.Ltmp214:
	.loc	2 87 25                 # ./timing_array.h:87:25
	imull	$113, %r15d, %eax
	.loc	2 87 22 is_stmt 0       # ./timing_array.h:87:22
	addl	$100, %eax
	.loc	2 87 31                 # ./timing_array.h:87:31
	movzbl	%al, %ebp
	.loc	2 90 24 is_stmt 1       # ./timing_array.h:90:24
	addl	$1, %ebp
.Ltmp215:
	#DEBUG_VALUE: operator[]:__n <- $ebp
	.loc	12 1043 25              # /usr/lib/gcc/x86_64-linux-gnu/9/../../../../include/c++/9/bits/stl_vector.h:1043:25
	movq	(%rsp), %rdi            # 8-byte Reload
	movq	%rsp, current_rsp
	leaq	asan_rtl_frame, %rsp
	callq	__asan_load8
	movq	current_rsp, %rsp
.Ltmp216:
	.loc	2 90 45                 # ./timing_array.h:90:45
	imulq	$4160, %rbp, %rdi       # imm = 0x1040
	addq	8(%r12), %rdi
.Ltmp217:
	.loc	14 60 29                # timing_array.cc:60:29
	movq	%rsp, current_rsp
	leaq	specfuzz_rtl_frame, %rsp
	callq	specfuzz_rlbk_external_call
	movq	current_rsp, %rsp
	addw	$1, disable_speculation
	callq	MeasureReadLatency
	subw	$1, disable_speculation
	movq	%rax, %r13
.Ltmp218:
	#DEBUG_VALUE: read_latency <- $r13
	.loc	14 61 25                # timing_array.cc:61:25
	movq	%r12, %rdi
	movq	%rsp, current_rsp
	leaq	asan_rtl_frame, %rsp
	callq	__asan_load8
	movq	current_rsp, %rsp
	.loc	14 61 22 is_stmt 0      # timing_array.cc:61:22
	cmpq	(%r12), %r13
	movq	%rsp, current_rsp
	leaq	specfuzz_rtl_frame, %rsp
	callq	specfuzz_chkp
	movq	current_rsp, %rsp
	jmp	.LBB3_8
	ja	.LBB3_6
	jmp	.LBB3_3
.Ltmp219:
.LBB3_8:                                # %for.body
                                        #   in Loop: Header=BB3_2 Depth=1
	.loc	14 0 22                 # timing_array.cc:0:22
	jbe	.LBB3_6
.LBB3_3:                                # %for.cond
                                        #   in Loop: Header=BB3_2 Depth=1
.Ltmp220:
	#DEBUG_VALUE: FindFirstCachedElementIndexAfter:this <- $r12
	#DEBUG_VALUE: i <- [DW_OP_plus_uconst 1, DW_OP_stack_value] undef
	.loc	14 58 21 is_stmt 1      # timing_array.cc:58:21
	subq	$2, instruction_counter
	addl	$1, %ebx
	cmpl	$255, %ebx
.Ltmp221:
	.loc	14 58 3 is_stmt 0       # timing_array.cc:58:3
	movq	%rsp, current_rsp
	leaq	specfuzz_rtl_frame, %rsp
	callq	specfuzz_chkp
	movq	current_rsp, %rsp
	jmp	.LBB3_9
	ja	.LBB3_2
	jmp	.LBB3_5
.Ltmp222:
.LBB3_9:                                # %for.cond
                                        #   in Loop: Header=BB3_2 Depth=1
	jbe	.LBB3_2
.Ltmp223:
.LBB3_5:
	.loc	14 0 3                  # timing_array.cc:0:3
	subq	$1, instruction_counter
	movl	$-1, %r15d
.LBB3_6:                                # %cleanup15
	subq	$9, instruction_counter
	movl	%r15d, %eax
	addq	$8, %rsp
	.cfi_def_cfa_offset 56
	popq	%rbx
	.cfi_def_cfa_offset 48
	popq	%r12
	.cfi_def_cfa_offset 40
	popq	%r13
	.cfi_def_cfa_offset 32
	popq	%r14
	.cfi_def_cfa_offset 24
	popq	%r15
	.cfi_def_cfa_offset 16
	popq	%rbp
	.cfi_def_cfa_offset 8
	movq	%rdi, tmp_gpr1
	movq	(%rsp), %rdi
	movq	%rsp, current_rsp
	leaq	specfuzz_rtl_frame, %rsp
	callq	specfuzz_check_code_pointer
	movq	current_rsp, %rsp
	movq	tmp_gpr1, %rdi
	retq
.Lfunc_end3:
	.size	_ZN11TimingArray32FindFirstCachedElementIndexAfterEi, .Lfunc_end3-_ZN11TimingArray32FindFirstCachedElementIndexAfterEi
	.cfi_endproc
                                        # -- End function
	.globl	_ZN11TimingArray27FindFirstCachedElementIndexEv # -- Begin function _ZN11TimingArray27FindFirstCachedElementIndexEv
	.p2align	4, 0x90
	.type	_ZN11TimingArray27FindFirstCachedElementIndexEv,@function
_ZN11TimingArray27FindFirstCachedElementIndexEv: # @_ZN11TimingArray27FindFirstCachedElementIndexEv
.Lfunc_begin4:
	.loc	14 70 0 is_stmt 1       # timing_array.cc:70:0
	.cfi_startproc
# %bb.0:                                # %for.cond.preheader.i
	nopl	42(%rbx)
	subq	$11, instruction_counter
	movq	%rsp, current_rsp
	movq	%r15, tmp_gpr1
	leaq	-8(%rsp), %r15
	movq	checkpoint_sp, %rsp
	pushq	%r15
	pushq	(%r15)
	movq	%rsp, checkpoint_sp
	movq	tmp_gpr1, %r15
	movq	current_rsp, %rsp
	pushq	%rbp
	.cfi_def_cfa_offset 16
	movq	%rsp, current_rsp
	movq	%r15, tmp_gpr1
	leaq	-8(%rsp), %r15
	movq	checkpoint_sp, %rsp
	pushq	%r15
	pushq	(%r15)
	movq	%rsp, checkpoint_sp
	movq	tmp_gpr1, %r15
	movq	current_rsp, %rsp
	pushq	%r15
	.cfi_def_cfa_offset 24
	movq	%rsp, current_rsp
	movq	%r15, tmp_gpr1
	leaq	-8(%rsp), %r15
	movq	checkpoint_sp, %rsp
	pushq	%r15
	pushq	(%r15)
	movq	%rsp, checkpoint_sp
	movq	tmp_gpr1, %r15
	movq	current_rsp, %rsp
	pushq	%r14
	.cfi_def_cfa_offset 32
	movq	%rsp, current_rsp
	movq	%r15, tmp_gpr1
	leaq	-8(%rsp), %r15
	movq	checkpoint_sp, %rsp
	pushq	%r15
	pushq	(%r15)
	movq	%rsp, checkpoint_sp
	movq	tmp_gpr1, %r15
	movq	current_rsp, %rsp
	pushq	%r13
	.cfi_def_cfa_offset 40
	movq	%rsp, current_rsp
	movq	%r15, tmp_gpr1
	leaq	-8(%rsp), %r15
	movq	checkpoint_sp, %rsp
	pushq	%r15
	pushq	(%r15)
	movq	%rsp, checkpoint_sp
	movq	tmp_gpr1, %r15
	movq	current_rsp, %rsp
	pushq	%r12
	.cfi_def_cfa_offset 48
	movq	%rsp, current_rsp
	movq	%r15, tmp_gpr1
	leaq	-8(%rsp), %r15
	movq	checkpoint_sp, %rsp
	pushq	%r15
	pushq	(%r15)
	movq	%rsp, checkpoint_sp
	movq	tmp_gpr1, %r15
	movq	current_rsp, %rsp
	pushq	%rbx
	.cfi_def_cfa_offset 56
	movq	%rsp, current_rsp
	movq	%r15, tmp_gpr1
	leaq	-8(%rsp), %r15
	movq	checkpoint_sp, %rsp
	pushq	%r15
	pushq	(%r15)
	movq	%rsp, checkpoint_sp
	movq	tmp_gpr1, %r15
	movq	current_rsp, %rsp
	pushq	%rax
	.cfi_def_cfa_offset 64
	.cfi_offset %rbx, -56
	.cfi_offset %r12, -48
	.cfi_offset %r13, -40
	.cfi_offset %r14, -32
	.cfi_offset %r15, -24
	.cfi_offset %rbp, -16
	#DEBUG_VALUE: FindFirstCachedElementIndex:this <- $rdi
.Ltmp224:
	#DEBUG_VALUE: FindFirstCachedElementIndexAfter:this <- $rdi
	#DEBUG_VALUE: ElementAt:this <- $rdi
	#DEBUG_VALUE: operator[]:this <- $rdi
	#DEBUG_VALUE: operator[]:this <- [DW_OP_plus_uconst 8, DW_OP_stack_value] $rdi
	movq	%rdi, %r14
.Ltmp225:
	#DEBUG_VALUE: operator[]:this <- [DW_OP_plus_uconst 8, DW_OP_stack_value] $r14
	#DEBUG_VALUE: operator[]:this <- $r14
	#DEBUG_VALUE: ElementAt:this <- $r14
	leaq	8(%rdi), %r15
	xorl	%r13d, %r13d
	movl	$100, %ebp
.Ltmp226:
	#DEBUG_VALUE: i <- 1
	#DEBUG_VALUE: FindFirstCachedElementIndexAfter:start_after <- 255
	#DEBUG_VALUE: FindFirstCachedElementIndexAfter:this <- $r14
	#DEBUG_VALUE: FindFirstCachedElementIndex:this <- $r14
	.p2align	4, 0x90
.LBB4_1:                                # %for.body.i
                                        # =>This Inner Loop Header: Depth=1
	#DEBUG_VALUE: FindFirstCachedElementIndex:this <- $r14
	#DEBUG_VALUE: FindFirstCachedElementIndexAfter:this <- $r14
	#DEBUG_VALUE: ElementAt:this <- $r14
	#DEBUG_VALUE: operator[]:this <- $r14
	#DEBUG_VALUE: operator[]:this <- [DW_OP_plus_uconst 8, DW_OP_stack_value] $r14
	#DEBUG_VALUE: i <- undef
	.loc	2 87 31 prologue_end    # ./timing_array.h:87:31
	subq	$11, instruction_counter
	movzbl	%bpl, %ebx
	.loc	2 90 24                 # ./timing_array.h:90:24
	addl	$1, %ebx
.Ltmp227:
	#DEBUG_VALUE: operator[]:__n <- $ebx
	.loc	12 1043 25              # /usr/lib/gcc/x86_64-linux-gnu/9/../../../../include/c++/9/bits/stl_vector.h:1043:25
	movq	%r15, %rdi
	movq	%rsp, current_rsp
	leaq	asan_rtl_frame, %rsp
	callq	__asan_load8
	movq	current_rsp, %rsp
.Ltmp228:
	.loc	2 90 45                 # ./timing_array.h:90:45
	imulq	$4160, %rbx, %rdi       # imm = 0x1040
	addq	8(%r14), %rdi
.Ltmp229:
	.loc	14 60 29                # timing_array.cc:60:29
	movq	%rsp, current_rsp
	leaq	specfuzz_rtl_frame, %rsp
	callq	specfuzz_rlbk_external_call
	movq	current_rsp, %rsp
	addw	$1, disable_speculation
	callq	MeasureReadLatency
	subw	$1, disable_speculation
	movq	%rax, %r12
.Ltmp230:
	#DEBUG_VALUE: read_latency <- $r12
	.loc	14 61 25                # timing_array.cc:61:25
	movq	%r14, %rdi
	movq	%rsp, current_rsp
	leaq	asan_rtl_frame, %rsp
	callq	__asan_load8
	movq	current_rsp, %rsp
	.loc	14 61 22 is_stmt 0      # timing_array.cc:61:22
	cmpq	(%r14), %r12
	movq	%rsp, current_rsp
	leaq	specfuzz_rtl_frame, %rsp
	callq	specfuzz_chkp
	movq	current_rsp, %rsp
	jmp	.LBB4_5
	ja	.LBB4_4
	jmp	.LBB4_2
.Ltmp231:
.LBB4_5:                                # %for.body.i
                                        #   in Loop: Header=BB4_1 Depth=1
	.loc	14 0 22                 # timing_array.cc:0:22
	jbe	.LBB4_4
.LBB4_2:                                # %for.cond.i
                                        #   in Loop: Header=BB4_1 Depth=1
.Ltmp232:
	#DEBUG_VALUE: FindFirstCachedElementIndex:this <- $r14
	#DEBUG_VALUE: FindFirstCachedElementIndexAfter:this <- $r14
	#DEBUG_VALUE: i <- [DW_OP_plus_uconst 1, DW_OP_stack_value] undef
	.loc	14 58 21 is_stmt 1      # timing_array.cc:58:21
	subq	$3, instruction_counter
	addl	$1, %r13d
	addl	$113, %ebp
	cmpl	$255, %r13d
.Ltmp233:
	.loc	14 58 3 is_stmt 0       # timing_array.cc:58:3
	movq	%rsp, current_rsp
	leaq	specfuzz_rtl_frame, %rsp
	callq	specfuzz_chkp
	movq	current_rsp, %rsp
	jmp	.LBB4_6
	ja	.LBB4_1
	jmp	.LBB4_3
.Ltmp234:
.LBB4_6:                                # %for.cond.i
                                        #   in Loop: Header=BB4_1 Depth=1
	jbe	.LBB4_1
.Ltmp235:
.LBB4_3:
	#DEBUG_VALUE: FindFirstCachedElementIndex:this <- $r14
	.loc	14 0 3                  # timing_array.cc:0:3
	subq	$1, instruction_counter
	movl	$-1, %r13d
.Ltmp236:
.LBB4_4:                                # %_ZN11TimingArray32FindFirstCachedElementIndexAfterEi.exit
	#DEBUG_VALUE: FindFirstCachedElementIndex:this <- $r14
	.loc	14 72 3 is_stmt 1       # timing_array.cc:72:3
	subq	$9, instruction_counter
	movl	%r13d, %eax
	addq	$8, %rsp
	.cfi_def_cfa_offset 56
	popq	%rbx
	.cfi_def_cfa_offset 48
	popq	%r12
	.cfi_def_cfa_offset 40
	popq	%r13
	.cfi_def_cfa_offset 32
	popq	%r14
.Ltmp237:
	.cfi_def_cfa_offset 24
	popq	%r15
	.cfi_def_cfa_offset 16
	popq	%rbp
	.cfi_def_cfa_offset 8
	movq	%rdi, tmp_gpr1
	movq	(%rsp), %rdi
	movq	%rsp, current_rsp
	leaq	specfuzz_rtl_frame, %rsp
	callq	specfuzz_check_code_pointer
	movq	current_rsp, %rsp
	movq	tmp_gpr1, %rdi
	retq
.Ltmp238:
.Lfunc_end4:
	.size	_ZN11TimingArray27FindFirstCachedElementIndexEv, .Lfunc_end4-_ZN11TimingArray27FindFirstCachedElementIndexEv
	.cfi_endproc
                                        # -- End function
	.section	.text._ZSt16__introsort_loopIN9__gnu_cxx17__normal_iteratorIPmSt6vectorImSaImEEEElNS0_5__ops15_Iter_less_iterEEvT_S9_T0_T1_,"axG",@progbits,_ZSt16__introsort_loopIN9__gnu_cxx17__normal_iteratorIPmSt6vectorImSaImEEEElNS0_5__ops15_Iter_less_iterEEvT_S9_T0_T1_,comdat
	.weak	_ZSt16__introsort_loopIN9__gnu_cxx17__normal_iteratorIPmSt6vectorImSaImEEEElNS0_5__ops15_Iter_less_iterEEvT_S9_T0_T1_ # -- Begin function _ZSt16__introsort_loopIN9__gnu_cxx17__normal_iteratorIPmSt6vectorImSaImEEEElNS0_5__ops15_Iter_less_iterEEvT_S9_T0_T1_
	.p2align	4, 0x90
	.type	_ZSt16__introsort_loopIN9__gnu_cxx17__normal_iteratorIPmSt6vectorImSaImEEEElNS0_5__ops15_Iter_less_iterEEvT_S9_T0_T1_,@function
_ZSt16__introsort_loopIN9__gnu_cxx17__normal_iteratorIPmSt6vectorImSaImEEEElNS0_5__ops15_Iter_less_iterEEvT_S9_T0_T1_: # @_ZSt16__introsort_loopIN9__gnu_cxx17__normal_iteratorIPmSt6vectorImSaImEEEElNS0_5__ops15_Iter_less_iterEEvT_S9_T0_T1_
.Lfunc_begin5:
	.loc	16 1942 0               # /usr/lib/gcc/x86_64-linux-gnu/9/../../../../include/c++/9/bits/stl_algo.h:1942:0
	.cfi_startproc
# %bb.0:                                # %entry
	nopl	42(%rbx)
	subq	$14, instruction_counter
	movq	%rsp, current_rsp
	movq	%r15, tmp_gpr1
	leaq	-8(%rsp), %r15
	movq	checkpoint_sp, %rsp
	pushq	%r15
	pushq	(%r15)
	movq	%rsp, checkpoint_sp
	movq	tmp_gpr1, %r15
	movq	current_rsp, %rsp
	pushq	%rbp
	.cfi_def_cfa_offset 16
	.cfi_offset %rbp, -16
	movq	%rsp, %rbp
	.cfi_def_cfa_register %rbp
	movq	%rsp, current_rsp
	movq	%r15, tmp_gpr1
	leaq	-8(%rsp), %r15
	movq	checkpoint_sp, %rsp
	pushq	%r15
	pushq	(%r15)
	movq	%rsp, checkpoint_sp
	movq	tmp_gpr1, %r15
	movq	current_rsp, %rsp
	pushq	%r15
	movq	%rsp, current_rsp
	movq	%r15, tmp_gpr1
	leaq	-8(%rsp), %r15
	movq	checkpoint_sp, %rsp
	pushq	%r15
	pushq	(%r15)
	movq	%rsp, checkpoint_sp
	movq	tmp_gpr1, %r15
	movq	current_rsp, %rsp
	pushq	%r14
	movq	%rsp, current_rsp
	movq	%r15, tmp_gpr1
	leaq	-8(%rsp), %r15
	movq	checkpoint_sp, %rsp
	pushq	%r15
	pushq	(%r15)
	movq	%rsp, checkpoint_sp
	movq	tmp_gpr1, %r15
	movq	current_rsp, %rsp
	pushq	%r13
	movq	%rsp, current_rsp
	movq	%r15, tmp_gpr1
	leaq	-8(%rsp), %r15
	movq	checkpoint_sp, %rsp
	pushq	%r15
	pushq	(%r15)
	movq	%rsp, checkpoint_sp
	movq	tmp_gpr1, %r15
	movq	current_rsp, %rsp
	pushq	%r12
	movq	%rsp, current_rsp
	movq	%r15, tmp_gpr1
	leaq	-8(%rsp), %r15
	movq	checkpoint_sp, %rsp
	pushq	%r15
	pushq	(%r15)
	movq	%rsp, checkpoint_sp
	movq	tmp_gpr1, %r15
	movq	current_rsp, %rsp
	pushq	%rbx
	andq	$-32, %rsp
	subq	$128, %rsp
	movq	%rsp, %rbx
	.cfi_offset %rbx, -56
	.cfi_offset %r12, -48
	.cfi_offset %r13, -40
	.cfi_offset %r14, -32
	.cfi_offset %r15, -24
.Ltmp239:
	#DEBUG_VALUE: __move_median_to_first<__gnu_cxx::__normal_iterator<unsigned long *, std::vector<unsigned long, std::allocator<unsigned long> > >, __gnu_cxx::__ops::_Iter_less_iter>:__result <- $rdi
	#DEBUG_VALUE: swap<unsigned long>:__a <- $rdi
	#DEBUG_VALUE: swap<unsigned long>:__a <- $rdi
	#DEBUG_VALUE: swap<unsigned long>:__a <- $rdi
	#DEBUG_VALUE: swap<unsigned long>:__a <- $rdi
	#DEBUG_VALUE: __partial_sort<__gnu_cxx::__normal_iterator<unsigned long *, std::vector<unsigned long, std::allocator<unsigned long> > >, __gnu_cxx::__ops::_Iter_less_iter>:__first <- $rdi
	#DEBUG_VALUE: __heap_select<__gnu_cxx::__normal_iterator<unsigned long *, std::vector<unsigned long, std::allocator<unsigned long> > >, __gnu_cxx::__ops::_Iter_less_iter>:__first <- $rdi
	movq	%rdx, %r14
	movq	%rsp, current_rsp
	movq	%r15, tmp_gpr1
	leaq	8(%rbx), %r15
	movq	checkpoint_sp, %rsp
	pushq	%r15
	pushq	(%r15)
	movq	%rsp, checkpoint_sp
	movq	tmp_gpr1, %r15
	movq	current_rsp, %rsp
	movq	%rsi, 8(%rbx)           # 8-byte Spill
	movq	%rdi, %r13
.Ltmp240:
	#DEBUG_VALUE: __heap_select<__gnu_cxx::__normal_iterator<unsigned long *, std::vector<unsigned long, std::allocator<unsigned long> > >, __gnu_cxx::__ops::_Iter_less_iter>:__first <- $r13
	#DEBUG_VALUE: __partial_sort<__gnu_cxx::__normal_iterator<unsigned long *, std::vector<unsigned long, std::allocator<unsigned long> > >, __gnu_cxx::__ops::_Iter_less_iter>:__first <- $r13
	#DEBUG_VALUE: swap<unsigned long>:__a <- $r13
	#DEBUG_VALUE: swap<unsigned long>:__a <- $r13
	#DEBUG_VALUE: swap<unsigned long>:__a <- $r13
	#DEBUG_VALUE: swap<unsigned long>:__a <- $r13
	#DEBUG_VALUE: __move_median_to_first<__gnu_cxx::__normal_iterator<unsigned long *, std::vector<unsigned long, std::allocator<unsigned long> > >, __gnu_cxx::__ops::_Iter_less_iter>:__result <- $r13
	.loc	16 1942 0 prologue_end  # /usr/lib/gcc/x86_64-linux-gnu/9/../../../../include/c++/9/bits/stl_algo.h:1942:0
	cmpl	$0, __asan_option_detect_stack_use_after_return(%rip)
	movq	%rsp, current_rsp
	leaq	specfuzz_rtl_frame, %rsp
	callq	specfuzz_chkp
	movq	current_rsp, %rsp
	jmp	.LBB5_48
	jne	.LBB5_27
	jmp	.LBB5_1
.Ltmp241:
.LBB5_48:                               # %entry
	.loc	16 0 0 is_stmt 0        # /usr/lib/gcc/x86_64-linux-gnu/9/../../../../include/c++/9/bits/stl_algo.h:0:0
	je	.LBB5_27
.LBB5_1:
	.loc	16 1942 0               # /usr/lib/gcc/x86_64-linux-gnu/9/../../../../include/c++/9/bits/stl_algo.h:1942:0
	subq	$5, instruction_counter
	movl	$64, %edi
	movq	%rsp, current_rsp
	leaq	asan_rtl_frame, %rsp
	callq	__asan_stack_malloc_0
	movq	current_rsp, %rsp
	movq	%rax, %rcx
	movq	%rsp, current_rsp
	movq	%r15, tmp_gpr1
	leaq	80(%rbx), %r15
	movq	checkpoint_sp, %rsp
	pushq	%r15
	pushq	(%r15)
	movq	%rsp, checkpoint_sp
	movq	tmp_gpr1, %r15
	movq	current_rsp, %rsp
	movq	%rax, 80(%rbx)          # 8-byte Spill
	testq	%rax, %rax
	movq	%rsp, current_rsp
	leaq	specfuzz_rtl_frame, %rsp
	callq	specfuzz_chkp
	movq	current_rsp, %rsp
	jmp	.LBB5_49
	je	.LBB5_3
	jmp	.LBB5_2
.LBB5_49:
	.loc	16 0 0                  # /usr/lib/gcc/x86_64-linux-gnu/9/../../../../include/c++/9/bits/stl_algo.h:0:0
	jne	.LBB5_3
.LBB5_2:
	.loc	16 1942 0               # /usr/lib/gcc/x86_64-linux-gnu/9/../../../../include/c++/9/bits/stl_algo.h:1942:0
	subq	$4, instruction_counter
	movq	%rsp, %rcx
	addq	$-64, %rcx
	andq	$-32, %rcx
	movq	%rcx, %rsp
.LBB5_3:
	subq	$12, instruction_counter
	movq	%rsp, current_rsp
	movq	%r15, tmp_gpr1
	leaq	88(%rbx), %r15
	movq	checkpoint_sp, %rsp
	pushq	%r15
	pushq	(%r15)
	movq	%rsp, checkpoint_sp
	movq	tmp_gpr1, %r15
	movq	current_rsp, %rsp
	movq	%rcx, 88(%rbx)
	movq	%rsp, current_rsp
	movq	%r15, tmp_gpr1
	leaq	(%rcx), %r15
	movq	checkpoint_sp, %rsp
	pushq	%r15
	pushq	(%r15)
	movq	%rsp, checkpoint_sp
	movq	tmp_gpr1, %r15
	movq	current_rsp, %rsp
	movq	$1102416563, (%rcx)     # imm = 0x41B58AB3
	movq	%rsp, current_rsp
	movq	%r15, tmp_gpr1
	leaq	8(%rcx), %r15
	movq	checkpoint_sp, %rsp
	pushq	%r15
	pushq	(%r15)
	movq	%rsp, checkpoint_sp
	movq	tmp_gpr1, %r15
	movq	current_rsp, %rsp
	movq	$.L___asan_gen_.2, 8(%rcx)
	movq	%rsp, current_rsp
	movq	%r15, tmp_gpr1
	leaq	16(%rcx), %r15
	movq	checkpoint_sp, %rsp
	pushq	%r15
	pushq	(%r15)
	movq	%rsp, checkpoint_sp
	movq	tmp_gpr1, %r15
	movq	current_rsp, %rsp
	movq	$_ZSt16__introsort_loopIN9__gnu_cxx17__normal_iteratorIPmSt6vectorImSaImEEEElNS0_5__ops15_Iter_less_iterEEvT_S9_T0_T1_, 16(%rcx)
	movq	%rsp, current_rsp
	movq	%r15, tmp_gpr1
	leaq	56(%rbx), %r15
	movq	checkpoint_sp, %rsp
	pushq	%r15
	pushq	(%r15)
	movq	%rsp, checkpoint_sp
	movq	tmp_gpr1, %r15
	movq	current_rsp, %rsp
	movq	%rcx, 56(%rbx)          # 8-byte Spill
	shrq	$3, %rcx
	movabsq	$-868082052615769615, %rax # imm = 0xF3F3F3F8F1F1F1F1
	movq	%rsp, current_rsp
	movq	%r15, tmp_gpr1
	leaq	48(%rbx), %r15
	movq	checkpoint_sp, %rsp
	pushq	%r15
	pushq	(%r15)
	movq	%rsp, checkpoint_sp
	movq	tmp_gpr1, %r15
	movq	current_rsp, %rsp
	movq	%rcx, 48(%rbx)          # 8-byte Spill
	movq	%rsp, current_rsp
	movq	%r15, tmp_gpr1
	leaq	2147450880(%rcx), %r15
	movq	checkpoint_sp, %rsp
	pushq	%r15
	pushq	(%r15)
	movq	%rsp, checkpoint_sp
	movq	tmp_gpr1, %r15
	movq	current_rsp, %rsp
	movq	%rax, 2147450880(%rcx)
.Ltmp242:
	#DEBUG_VALUE: operator-<unsigned long *, std::vector<unsigned long, std::allocator<unsigned long> > >:__rhs <- undef
	#DEBUG_VALUE: operator-<unsigned long *, std::vector<unsigned long, std::allocator<unsigned long> > >:__lhs <- undef
	#DEBUG_VALUE: __introsort_loop<__gnu_cxx::__normal_iterator<unsigned long *, std::vector<unsigned long, std::allocator<unsigned long> > >, long, __gnu_cxx::__ops::_Iter_less_iter>:__last <- [DW_OP_deref] undef
	#DEBUG_VALUE: __introsort_loop<__gnu_cxx::__normal_iterator<unsigned long *, std::vector<unsigned long, std::allocator<unsigned long> > >, long, __gnu_cxx::__ops::_Iter_less_iter>:__first <- [DW_OP_deref] undef
	.loc	18 992 27 is_stmt 1     # /usr/lib/gcc/x86_64-linux-gnu/9/../../../../include/c++/9/bits/stl_iterator.h:992:27
	movq	8(%rbx), %r15           # 8-byte Reload
	subq	%r13, %r15
.Ltmp243:
	.loc	16 1943 31              # /usr/lib/gcc/x86_64-linux-gnu/9/../../../../include/c++/9/bits/stl_algo.h:1943:31
	cmpq	$129, %r15
	.loc	16 1943 7 is_stmt 0     # /usr/lib/gcc/x86_64-linux-gnu/9/../../../../include/c++/9/bits/stl_algo.h:1943:7
	movq	%rsp, current_rsp
	leaq	specfuzz_rtl_frame, %rsp
	callq	specfuzz_chkp
	movq	current_rsp, %rsp
	jmp	.LBB5_50
	jge	.LBB5_44
	jmp	.LBB5_4
.LBB5_50:
	jl	.LBB5_44
.LBB5_4:                                # %while.body.lr.ph
	.loc	16 0 7                  # /usr/lib/gcc/x86_64-linux-gnu/9/../../../../include/c++/9/bits/stl_algo.h:0:7
	subq	$6, instruction_counter
	movq	56(%rbx), %rax          # 8-byte Reload
	leaq	32(%rax), %rax
.Ltmp244:
	#DEBUG_VALUE: __heap_select<__gnu_cxx::__normal_iterator<unsigned long *, std::vector<unsigned long, std::allocator<unsigned long> > >, __gnu_cxx::__ops::_Iter_less_iter>:__comp <- [DW_OP_plus_uconst 72, DW_OP_deref] [$rbx+0]
	movq	%rsp, current_rsp
	movq	%r15, tmp_gpr1
	leaq	72(%rbx), %r15
	movq	checkpoint_sp, %rsp
	pushq	%r15
	pushq	(%r15)
	movq	%rsp, checkpoint_sp
	movq	tmp_gpr1, %r15
	movq	current_rsp, %rsp
	movq	%rax, 72(%rbx)          # 8-byte Spill
	leaq	8(%r13), %rdi
.Ltmp245:
	#DEBUG_VALUE: __move_median_to_first<__gnu_cxx::__normal_iterator<unsigned long *, std::vector<unsigned long, std::allocator<unsigned long> > >, __gnu_cxx::__ops::_Iter_less_iter>:__a <- $rdi
	#DEBUG_VALUE: swap<unsigned long>:__b <- $rdi
	#DEBUG_VALUE: swap<unsigned long>:__b <- $rdi
	movq	%rsp, current_rsp
	movq	%r15, tmp_gpr1
	leaq	16(%rbx), %r15
	movq	checkpoint_sp, %rsp
	pushq	%r15
	pushq	(%r15)
	movq	%rsp, checkpoint_sp
	movq	tmp_gpr1, %r15
	movq	current_rsp, %rsp
	movq	%r13, 16(%rbx)          # 8-byte Spill
	movq	%rsp, current_rsp
	movq	%r15, tmp_gpr1
	leaq	(%rbx), %r15
	movq	checkpoint_sp, %rsp
	pushq	%r15
	pushq	(%r15)
	movq	%rsp, checkpoint_sp
	movq	tmp_gpr1, %r15
	movq	current_rsp, %rsp
	movq	%rdi, (%rbx)            # 8-byte Spill
.Ltmp246:
	.p2align	4, 0x90
.LBB5_5:                                # %while.body
                                        # =>This Loop Header: Depth=1
                                        #     Child Loop BB5_21 Depth 2
                                        #       Child Loop BB5_22 Depth 3
                                        #       Child Loop BB5_24 Depth 3
	#DEBUG_VALUE: __heap_select<__gnu_cxx::__normal_iterator<unsigned long *, std::vector<unsigned long, std::allocator<unsigned long> > >, __gnu_cxx::__ops::_Iter_less_iter>:__comp <- [DW_OP_plus_uconst 72, DW_OP_deref] [$rbx+0]
	#DEBUG_VALUE: __heap_select<__gnu_cxx::__normal_iterator<unsigned long *, std::vector<unsigned long, std::allocator<unsigned long> > >, __gnu_cxx::__ops::_Iter_less_iter>:__middle <- [DW_OP_plus_uconst 8] [$rbx+0]
	#DEBUG_VALUE: __partial_sort<__gnu_cxx::__normal_iterator<unsigned long *, std::vector<unsigned long, std::allocator<unsigned long> > >, __gnu_cxx::__ops::_Iter_less_iter>:__last <- [DW_OP_plus_uconst 8] [$rbx+0]
	#DEBUG_VALUE: __partial_sort<__gnu_cxx::__normal_iterator<unsigned long *, std::vector<unsigned long, std::allocator<unsigned long> > >, __gnu_cxx::__ops::_Iter_less_iter>:__middle <- [DW_OP_plus_uconst 8] [$rbx+0]
	#DEBUG_VALUE: __introsort_loop<__gnu_cxx::__normal_iterator<unsigned long *, std::vector<unsigned long, std::allocator<unsigned long> > >, long, __gnu_cxx::__ops::_Iter_less_iter>:__depth_limit <- $r14
	.loc	16 1945 22 is_stmt 1    # /usr/lib/gcc/x86_64-linux-gnu/9/../../../../include/c++/9/bits/stl_algo.h:1945:22
	subq	$2, instruction_counter
	testq	%r14, %r14
.Ltmp247:
	.loc	16 1945 8 is_stmt 0     # /usr/lib/gcc/x86_64-linux-gnu/9/../../../../include/c++/9/bits/stl_algo.h:1945:8
	movq	%rsp, current_rsp
	leaq	specfuzz_rtl_frame, %rsp
	callq	specfuzz_chkp
	movq	current_rsp, %rsp
	jmp	.LBB5_51
	jne	.LBB5_28
	jmp	.LBB5_6
.Ltmp248:
.LBB5_51:                               # %while.body
                                        #   in Loop: Header=BB5_5 Depth=1
	je	.LBB5_28
.LBB5_6:                                # %if.end
                                        #   in Loop: Header=BB5_5 Depth=1
.Ltmp249:
	#DEBUG_VALUE: __introsort_loop<__gnu_cxx::__normal_iterator<unsigned long *, std::vector<unsigned long, std::allocator<unsigned long> > >, long, __gnu_cxx::__ops::_Iter_less_iter>:__depth_limit <- $r14
	.loc	16 0 8                  # /usr/lib/gcc/x86_64-linux-gnu/9/../../../../include/c++/9/bits/stl_algo.h:0:8
	subq	$5, instruction_counter
	movq	%rsp, current_rsp
	movq	%r15, tmp_gpr1
	leaq	32(%rbx), %r15
	movq	checkpoint_sp, %rsp
	pushq	%r15
	pushq	(%r15)
	movq	%rsp, checkpoint_sp
	movq	tmp_gpr1, %r15
	movq	current_rsp, %rsp
	movq	%r14, 32(%rbx)          # 8-byte Spill
.Ltmp250:
	#DEBUG_VALUE: __introsort_loop<__gnu_cxx::__normal_iterator<unsigned long *, std::vector<unsigned long, std::allocator<unsigned long> > >, long, __gnu_cxx::__ops::_Iter_less_iter>:__depth_limit <- [DW_OP_plus_uconst 32] [$rbx+0]
	shrq	$4, %r15
.Ltmp251:
	#DEBUG_VALUE: operator+:this <- undef
	#DEBUG_VALUE: operator-<unsigned long *, std::vector<unsigned long, std::allocator<unsigned long> > >:__rhs <- undef
	#DEBUG_VALUE: operator-<unsigned long *, std::vector<unsigned long, std::allocator<unsigned long> > >:__lhs <- undef
	#DEBUG_VALUE: __unguarded_partition_pivot<__gnu_cxx::__normal_iterator<unsigned long *, std::vector<unsigned long, std::allocator<unsigned long> > >, __gnu_cxx::__ops::_Iter_less_iter>:__last <- [DW_OP_deref] undef
	#DEBUG_VALUE: __unguarded_partition_pivot<__gnu_cxx::__normal_iterator<unsigned long *, std::vector<unsigned long, std::allocator<unsigned long> > >, __gnu_cxx::__ops::_Iter_less_iter>:__first <- [DW_OP_deref] undef
	.loc	18 860 45 is_stmt 1     # /usr/lib/gcc/x86_64-linux-gnu/9/../../../../include/c++/9/bits/stl_iterator.h:860:45
	leaq	(,%r15,8), %r14
	addq	%r13, %r14
.Ltmp252:
	#DEBUG_VALUE: __unguarded_partition_pivot<__gnu_cxx::__normal_iterator<unsigned long *, std::vector<unsigned long, std::allocator<unsigned long> > >, __gnu_cxx::__ops::_Iter_less_iter>:__mid <- $r14
	#DEBUG_VALUE: operator-:this <- undef
	#DEBUG_VALUE: operator+:__n <- 1
	#DEBUG_VALUE: operator+:this <- undef
	#DEBUG_VALUE: swap<unsigned long>:__b <- $r14
	#DEBUG_VALUE: swap<unsigned long>:__b <- $r14
	#DEBUG_VALUE: __unguarded_partition_pivot<__gnu_cxx::__normal_iterator<unsigned long *, std::vector<unsigned long, std::allocator<unsigned long> > >, __gnu_cxx::__ops::_Iter_less_iter>:__last <- [DW_OP_deref] undef
	#DEBUG_VALUE: __unguarded_partition_pivot<__gnu_cxx::__normal_iterator<unsigned long *, std::vector<unsigned long, std::allocator<unsigned long> > >, __gnu_cxx::__ops::_Iter_less_iter>:__first <- [DW_OP_deref] undef
	.loc	18 868 45               # /usr/lib/gcc/x86_64-linux-gnu/9/../../../../include/c++/9/bits/stl_iterator.h:868:45
	movq	8(%rbx), %rax           # 8-byte Reload
.Ltmp253:
	#DEBUG_VALUE: operator-:__n <- 1
	movq	%rsp, current_rsp
	leaq	specfuzz_rtl_frame, %rsp
	callq	specfuzz_rlbk_if_done
	movq	current_rsp, %rsp
	subq	$15, instruction_counter
	leaq	-8(%rax), %r12
.Ltmp254:
	#DEBUG_VALUE: __move_median_to_first<__gnu_cxx::__normal_iterator<unsigned long *, std::vector<unsigned long, std::allocator<unsigned long> > >, __gnu_cxx::__ops::_Iter_less_iter>:__c <- $r12
	#DEBUG_VALUE: operator()<__gnu_cxx::__normal_iterator<unsigned long *, std::vector<unsigned long, std::allocator<unsigned long> > >, __gnu_cxx::__normal_iterator<unsigned long *, std::vector<unsigned long, std::allocator<unsigned long> > > >:__it1 <- [DW_OP_deref] undef
	#DEBUG_VALUE: swap<unsigned long>:__b <- $r12
	#DEBUG_VALUE: swap<unsigned long>:__b <- $r12
	#DEBUG_VALUE: __move_median_to_first<__gnu_cxx::__normal_iterator<unsigned long *, std::vector<unsigned long, std::allocator<unsigned long> > >, __gnu_cxx::__ops::_Iter_less_iter>:__b <- $r14
	.loc	59 43 16                # /usr/lib/gcc/x86_64-linux-gnu/9/../../../../include/c++/9/bits/predefined_ops.h:43:16
	movq	%rsp, current_rsp
	leaq	asan_rtl_frame, %rsp
	callq	__asan_load8
	movq	current_rsp, %rsp
	movq	8(%r13), %rax
.Ltmp255:
	#DEBUG_VALUE: operator()<__gnu_cxx::__normal_iterator<unsigned long *, std::vector<unsigned long, std::allocator<unsigned long> > >, __gnu_cxx::__normal_iterator<unsigned long *, std::vector<unsigned long, std::allocator<unsigned long> > > >:__it2 <- [DW_OP_deref] undef
	.loc	59 43 25 is_stmt 0      # /usr/lib/gcc/x86_64-linux-gnu/9/../../../../include/c++/9/bits/predefined_ops.h:43:25
	movq	%rsp, current_rsp
	movq	%r15, tmp_gpr1
	leaq	40(%rbx), %r15
	movq	checkpoint_sp, %rsp
	pushq	%r15
	pushq	(%r15)
	movq	%rsp, checkpoint_sp
	movq	tmp_gpr1, %r15
	movq	current_rsp, %rsp
	movq	%rax, 40(%rbx)          # 8-byte Spill
	movq	%rsp, current_rsp
	movq	%r15, tmp_gpr1
	leaq	24(%rbx), %r15
	movq	checkpoint_sp, %rsp
	pushq	%r15
	pushq	(%r15)
	movq	%rsp, checkpoint_sp
	movq	tmp_gpr1, %r15
	movq	current_rsp, %rsp
	movq	%r14, 24(%rbx)          # 8-byte Spill
.Ltmp256:
	#DEBUG_VALUE: __unguarded_partition_pivot<__gnu_cxx::__normal_iterator<unsigned long *, std::vector<unsigned long, std::allocator<unsigned long> > >, __gnu_cxx::__ops::_Iter_less_iter>:__mid <- [DW_OP_plus_uconst 24] [$rbx+0]
	#DEBUG_VALUE: __move_median_to_first<__gnu_cxx::__normal_iterator<unsigned long *, std::vector<unsigned long, std::allocator<unsigned long> > >, __gnu_cxx::__ops::_Iter_less_iter>:__b <- [DW_OP_plus_uconst 24] [$rbx+0]
	#DEBUG_VALUE: swap<unsigned long>:__b <- [DW_OP_plus_uconst 24] [$rbx+0]
	#DEBUG_VALUE: swap<unsigned long>:__b <- [DW_OP_plus_uconst 24] [$rbx+0]
	movq	%r14, %rdi
	movq	%rsp, current_rsp
	leaq	asan_rtl_frame, %rsp
	callq	__asan_load8
	movq	current_rsp, %rsp
	movq	(%r13,%r15,8), %r15
.Ltmp257:
	#DEBUG_VALUE: operator()<__gnu_cxx::__normal_iterator<unsigned long *, std::vector<unsigned long, std::allocator<unsigned long> > >, __gnu_cxx::__normal_iterator<unsigned long *, std::vector<unsigned long, std::allocator<unsigned long> > > >:__it2 <- [DW_OP_deref] undef
	#DEBUG_VALUE: operator()<__gnu_cxx::__normal_iterator<unsigned long *, std::vector<unsigned long, std::allocator<unsigned long> > >, __gnu_cxx::__normal_iterator<unsigned long *, std::vector<unsigned long, std::allocator<unsigned long> > > >:__it2 <- [DW_OP_deref] undef
	#DEBUG_VALUE: operator()<__gnu_cxx::__normal_iterator<unsigned long *, std::vector<unsigned long, std::allocator<unsigned long> > >, __gnu_cxx::__normal_iterator<unsigned long *, std::vector<unsigned long, std::allocator<unsigned long> > > >:__it1 <- [DW_OP_deref] undef
	#DEBUG_VALUE: operator()<__gnu_cxx::__normal_iterator<unsigned long *, std::vector<unsigned long, std::allocator<unsigned long> > >, __gnu_cxx::__normal_iterator<unsigned long *, std::vector<unsigned long, std::allocator<unsigned long> > > >:__it1 <- [DW_OP_deref] undef
	.loc	59 0 25                 # /usr/lib/gcc/x86_64-linux-gnu/9/../../../../include/c++/9/bits/predefined_ops.h:0:25
	movq	%rsp, current_rsp
	movq	%r15, tmp_gpr1
	leaq	64(%rbx), %r15
	movq	checkpoint_sp, %rsp
	pushq	%r15
	pushq	(%r15)
	movq	%rsp, checkpoint_sp
	movq	tmp_gpr1, %r15
	movq	current_rsp, %rsp
	movq	%r12, 64(%rbx)          # 8-byte Spill
.Ltmp258:
	#DEBUG_VALUE: __move_median_to_first<__gnu_cxx::__normal_iterator<unsigned long *, std::vector<unsigned long, std::allocator<unsigned long> > >, __gnu_cxx::__ops::_Iter_less_iter>:__c <- [DW_OP_plus_uconst 64] [$rbx+0]
	#DEBUG_VALUE: swap<unsigned long>:__b <- [DW_OP_plus_uconst 64] [$rbx+0]
	#DEBUG_VALUE: swap<unsigned long>:__b <- [DW_OP_plus_uconst 64] [$rbx+0]
	.loc	59 43 25                # /usr/lib/gcc/x86_64-linux-gnu/9/../../../../include/c++/9/bits/predefined_ops.h:43:25
	movq	%r12, %rdi
	movq	40(%rbx), %r12          # 8-byte Reload
	movq	%rsp, current_rsp
	leaq	asan_rtl_frame, %rsp
	callq	__asan_load8
	movq	current_rsp, %rsp
	movq	8(%rbx), %rax           # 8-byte Reload
	movq	-8(%rax), %r13
.Ltmp259:
	.loc	59 43 23                # /usr/lib/gcc/x86_64-linux-gnu/9/../../../../include/c++/9/bits/predefined_ops.h:43:23
	cmpq	%r15, %r12
.Ltmp260:
	.loc	16 81 11 is_stmt 1      # /usr/lib/gcc/x86_64-linux-gnu/9/../../../../include/c++/9/bits/stl_algo.h:81:11
	movq	%rsp, current_rsp
	leaq	specfuzz_rtl_frame, %rsp
	callq	specfuzz_chkp
	movq	current_rsp, %rsp
	jmp	.LBB5_52
	jb	.LBB5_10
	jmp	.LBB5_7
.LBB5_52:                               # %if.end
                                        #   in Loop: Header=BB5_5 Depth=1
	jae	.LBB5_10
.LBB5_7:                                # %if.then.i.i
                                        #   in Loop: Header=BB5_5 Depth=1
	#DEBUG_VALUE: __introsort_loop<__gnu_cxx::__normal_iterator<unsigned long *, std::vector<unsigned long, std::allocator<unsigned long> > >, long, __gnu_cxx::__ops::_Iter_less_iter>:__depth_limit <- [DW_OP_plus_uconst 32] [$rbx+0]
	#DEBUG_VALUE: __move_median_to_first<__gnu_cxx::__normal_iterator<unsigned long *, std::vector<unsigned long, std::allocator<unsigned long> > >, __gnu_cxx::__ops::_Iter_less_iter>:__c <- [DW_OP_plus_uconst 64] [$rbx+0]
	#DEBUG_VALUE: __move_median_to_first<__gnu_cxx::__normal_iterator<unsigned long *, std::vector<unsigned long, std::allocator<unsigned long> > >, __gnu_cxx::__ops::_Iter_less_iter>:__b <- [DW_OP_plus_uconst 24] [$rbx+0]
	#DEBUG_VALUE: __unguarded_partition_pivot<__gnu_cxx::__normal_iterator<unsigned long *, std::vector<unsigned long, std::allocator<unsigned long> > >, __gnu_cxx::__ops::_Iter_less_iter>:__mid <- [DW_OP_plus_uconst 24] [$rbx+0]
.Ltmp261:
	.loc	59 43 23                # /usr/lib/gcc/x86_64-linux-gnu/9/../../../../include/c++/9/bits/predefined_ops.h:43:23
	subq	$2, instruction_counter
	cmpq	%r13, %r15
.Ltmp262:
	.loc	16 83 8                 # /usr/lib/gcc/x86_64-linux-gnu/9/../../../../include/c++/9/bits/stl_algo.h:83:8
	movq	%rsp, current_rsp
	leaq	specfuzz_rtl_frame, %rsp
	callq	specfuzz_chkp
	movq	current_rsp, %rsp
	jmp	.LBB5_53
	jb	.LBB5_13
	jmp	.LBB5_8
.LBB5_53:                               # %if.then.i.i
                                        #   in Loop: Header=BB5_5 Depth=1
	jae	.LBB5_13
.LBB5_8:                                # %if.then12.i.i
                                        #   in Loop: Header=BB5_5 Depth=1
	#DEBUG_VALUE: __introsort_loop<__gnu_cxx::__normal_iterator<unsigned long *, std::vector<unsigned long, std::allocator<unsigned long> > >, long, __gnu_cxx::__ops::_Iter_less_iter>:__depth_limit <- [DW_OP_plus_uconst 32] [$rbx+0]
	#DEBUG_VALUE: __move_median_to_first<__gnu_cxx::__normal_iterator<unsigned long *, std::vector<unsigned long, std::allocator<unsigned long> > >, __gnu_cxx::__ops::_Iter_less_iter>:__c <- [DW_OP_plus_uconst 64] [$rbx+0]
	#DEBUG_VALUE: __move_median_to_first<__gnu_cxx::__normal_iterator<unsigned long *, std::vector<unsigned long, std::allocator<unsigned long> > >, __gnu_cxx::__ops::_Iter_less_iter>:__b <- [DW_OP_plus_uconst 24] [$rbx+0]
	#DEBUG_VALUE: __unguarded_partition_pivot<__gnu_cxx::__normal_iterator<unsigned long *, std::vector<unsigned long, std::allocator<unsigned long> > >, __gnu_cxx::__ops::_Iter_less_iter>:__mid <- [DW_OP_plus_uconst 24] [$rbx+0]
.Ltmp263:
	#DEBUG_VALUE: iter_swap<__gnu_cxx::__normal_iterator<unsigned long *, std::vector<unsigned long, std::allocator<unsigned long> > >, __gnu_cxx::__normal_iterator<unsigned long *, std::vector<unsigned long, std::allocator<unsigned long> > > >:__a <- [DW_OP_deref] undef
	#DEBUG_VALUE: iter_swap<__gnu_cxx::__normal_iterator<unsigned long *, std::vector<unsigned long, std::allocator<unsigned long> > >, __gnu_cxx::__normal_iterator<unsigned long *, std::vector<unsigned long, std::allocator<unsigned long> > > >:__b <- [DW_OP_deref] undef
	.loc	16 0 8 is_stmt 0        # /usr/lib/gcc/x86_64-linux-gnu/9/../../../../include/c++/9/bits/stl_algo.h:0:8
	subq	$5, instruction_counter
	movq	16(%rbx), %r12          # 8-byte Reload
.Ltmp264:
	.file	61 "/usr/lib/gcc/x86_64-linux-gnu/9/../../../../include/c++/9/bits/move.h"
	.loc	61 193 19 is_stmt 1     # /usr/lib/gcc/x86_64-linux-gnu/9/../../../../include/c++/9/bits/move.h:193:19
	movq	%r12, %rdi
	movq	%rsp, current_rsp
	leaq	asan_rtl_frame, %rsp
	callq	__asan_load8
	movq	current_rsp, %rsp
	movq	(%r12), %r14
	movq	%rsp, current_rsp
	leaq	specfuzz_rtl_frame, %rsp
	callq	specfuzz_rlbk_if_done
	movq	current_rsp, %rsp
	jmp	.LBB5_9
.Ltmp265:
	.p2align	4, 0x90
.LBB5_10:                               # %if.else33.i.i
                                        #   in Loop: Header=BB5_5 Depth=1
	#DEBUG_VALUE: __introsort_loop<__gnu_cxx::__normal_iterator<unsigned long *, std::vector<unsigned long, std::allocator<unsigned long> > >, long, __gnu_cxx::__ops::_Iter_less_iter>:__depth_limit <- [DW_OP_plus_uconst 32] [$rbx+0]
	#DEBUG_VALUE: __move_median_to_first<__gnu_cxx::__normal_iterator<unsigned long *, std::vector<unsigned long, std::allocator<unsigned long> > >, __gnu_cxx::__ops::_Iter_less_iter>:__c <- [DW_OP_plus_uconst 64] [$rbx+0]
	#DEBUG_VALUE: __move_median_to_first<__gnu_cxx::__normal_iterator<unsigned long *, std::vector<unsigned long, std::allocator<unsigned long> > >, __gnu_cxx::__ops::_Iter_less_iter>:__b <- [DW_OP_plus_uconst 24] [$rbx+0]
	#DEBUG_VALUE: __unguarded_partition_pivot<__gnu_cxx::__normal_iterator<unsigned long *, std::vector<unsigned long, std::allocator<unsigned long> > >, __gnu_cxx::__ops::_Iter_less_iter>:__mid <- [DW_OP_plus_uconst 24] [$rbx+0]
	.loc	59 43 23                # /usr/lib/gcc/x86_64-linux-gnu/9/../../../../include/c++/9/bits/predefined_ops.h:43:23
	subq	$2, instruction_counter
	cmpq	%r13, %r12
.Ltmp266:
	.loc	16 90 16                # /usr/lib/gcc/x86_64-linux-gnu/9/../../../../include/c++/9/bits/stl_algo.h:90:16
	movq	%rsp, current_rsp
	leaq	specfuzz_rtl_frame, %rsp
	callq	specfuzz_chkp
	movq	current_rsp, %rsp
	jmp	.LBB5_54
	jb	.LBB5_15
	jmp	.LBB5_11
.LBB5_54:                               # %if.else33.i.i
                                        #   in Loop: Header=BB5_5 Depth=1
	jae	.LBB5_15
.LBB5_11:                               # %if.then39.i.i
                                        #   in Loop: Header=BB5_5 Depth=1
	#DEBUG_VALUE: __introsort_loop<__gnu_cxx::__normal_iterator<unsigned long *, std::vector<unsigned long, std::allocator<unsigned long> > >, long, __gnu_cxx::__ops::_Iter_less_iter>:__depth_limit <- [DW_OP_plus_uconst 32] [$rbx+0]
	#DEBUG_VALUE: __move_median_to_first<__gnu_cxx::__normal_iterator<unsigned long *, std::vector<unsigned long, std::allocator<unsigned long> > >, __gnu_cxx::__ops::_Iter_less_iter>:__c <- [DW_OP_plus_uconst 64] [$rbx+0]
	#DEBUG_VALUE: __move_median_to_first<__gnu_cxx::__normal_iterator<unsigned long *, std::vector<unsigned long, std::allocator<unsigned long> > >, __gnu_cxx::__ops::_Iter_less_iter>:__b <- [DW_OP_plus_uconst 24] [$rbx+0]
	#DEBUG_VALUE: __unguarded_partition_pivot<__gnu_cxx::__normal_iterator<unsigned long *, std::vector<unsigned long, std::allocator<unsigned long> > >, __gnu_cxx::__ops::_Iter_less_iter>:__mid <- [DW_OP_plus_uconst 24] [$rbx+0]
.Ltmp267:
	#DEBUG_VALUE: iter_swap<__gnu_cxx::__normal_iterator<unsigned long *, std::vector<unsigned long, std::allocator<unsigned long> > >, __gnu_cxx::__normal_iterator<unsigned long *, std::vector<unsigned long, std::allocator<unsigned long> > > >:__a <- [DW_OP_deref] undef
	#DEBUG_VALUE: iter_swap<__gnu_cxx::__normal_iterator<unsigned long *, std::vector<unsigned long, std::allocator<unsigned long> > >, __gnu_cxx::__normal_iterator<unsigned long *, std::vector<unsigned long, std::allocator<unsigned long> > > >:__b <- [DW_OP_deref] undef
	.loc	16 0 16 is_stmt 0       # /usr/lib/gcc/x86_64-linux-gnu/9/../../../../include/c++/9/bits/stl_algo.h:0:16
	subq	$5, instruction_counter
	movq	16(%rbx), %r15          # 8-byte Reload
.Ltmp268:
	.loc	61 193 19 is_stmt 1     # /usr/lib/gcc/x86_64-linux-gnu/9/../../../../include/c++/9/bits/move.h:193:19
	movq	%r15, %rdi
	movq	%rsp, current_rsp
	leaq	asan_rtl_frame, %rsp
	callq	__asan_load8
	movq	current_rsp, %rsp
	movq	(%r15), %r14
	movq	%rsp, current_rsp
	leaq	specfuzz_rtl_frame, %rsp
	callq	specfuzz_rlbk_if_done
	movq	current_rsp, %rsp
	jmp	.LBB5_12
.Ltmp269:
	.p2align	4, 0x90
.LBB5_13:                               # %if.else.i.i
                                        #   in Loop: Header=BB5_5 Depth=1
	#DEBUG_VALUE: __introsort_loop<__gnu_cxx::__normal_iterator<unsigned long *, std::vector<unsigned long, std::allocator<unsigned long> > >, long, __gnu_cxx::__ops::_Iter_less_iter>:__depth_limit <- [DW_OP_plus_uconst 32] [$rbx+0]
	#DEBUG_VALUE: __move_median_to_first<__gnu_cxx::__normal_iterator<unsigned long *, std::vector<unsigned long, std::allocator<unsigned long> > >, __gnu_cxx::__ops::_Iter_less_iter>:__c <- [DW_OP_plus_uconst 64] [$rbx+0]
	#DEBUG_VALUE: __move_median_to_first<__gnu_cxx::__normal_iterator<unsigned long *, std::vector<unsigned long, std::allocator<unsigned long> > >, __gnu_cxx::__ops::_Iter_less_iter>:__b <- [DW_OP_plus_uconst 24] [$rbx+0]
	#DEBUG_VALUE: __unguarded_partition_pivot<__gnu_cxx::__normal_iterator<unsigned long *, std::vector<unsigned long, std::allocator<unsigned long> > >, __gnu_cxx::__ops::_Iter_less_iter>:__mid <- [DW_OP_plus_uconst 24] [$rbx+0]
	#DEBUG_VALUE: operator()<__gnu_cxx::__normal_iterator<unsigned long *, std::vector<unsigned long, std::allocator<unsigned long> > >, __gnu_cxx::__normal_iterator<unsigned long *, std::vector<unsigned long, std::allocator<unsigned long> > > >:__it1 <- [DW_OP_deref] undef
	#DEBUG_VALUE: operator()<__gnu_cxx::__normal_iterator<unsigned long *, std::vector<unsigned long, std::allocator<unsigned long> > >, __gnu_cxx::__normal_iterator<unsigned long *, std::vector<unsigned long, std::allocator<unsigned long> > > >:__it2 <- [DW_OP_deref] undef
	#DEBUG_VALUE: iter_swap<__gnu_cxx::__normal_iterator<unsigned long *, std::vector<unsigned long, std::allocator<unsigned long> > >, __gnu_cxx::__normal_iterator<unsigned long *, std::vector<unsigned long, std::allocator<unsigned long> > > >:__a <- [DW_OP_deref] undef
	#DEBUG_VALUE: iter_swap<__gnu_cxx::__normal_iterator<unsigned long *, std::vector<unsigned long, std::allocator<unsigned long> > >, __gnu_cxx::__normal_iterator<unsigned long *, std::vector<unsigned long, std::allocator<unsigned long> > > >:__a <- [DW_OP_deref] undef
	#DEBUG_VALUE: iter_swap<__gnu_cxx::__normal_iterator<unsigned long *, std::vector<unsigned long, std::allocator<unsigned long> > >, __gnu_cxx::__normal_iterator<unsigned long *, std::vector<unsigned long, std::allocator<unsigned long> > > >:__b <- [DW_OP_deref] undef
	#DEBUG_VALUE: iter_swap<__gnu_cxx::__normal_iterator<unsigned long *, std::vector<unsigned long, std::allocator<unsigned long> > >, __gnu_cxx::__normal_iterator<unsigned long *, std::vector<unsigned long, std::allocator<unsigned long> > > >:__b <- [DW_OP_deref] undef
	.loc	61 0 19 is_stmt 0       # /usr/lib/gcc/x86_64-linux-gnu/9/../../../../include/c++/9/bits/move.h:0:19
	subq	$5, instruction_counter
	movq	16(%rbx), %r15          # 8-byte Reload
.Ltmp270:
	.loc	61 193 19               # /usr/lib/gcc/x86_64-linux-gnu/9/../../../../include/c++/9/bits/move.h:193:19
	movq	%r15, %rdi
	movq	%rsp, current_rsp
	leaq	asan_rtl_frame, %rsp
	callq	__asan_load8
	movq	current_rsp, %rsp
	movq	(%r15), %r14
.Ltmp271:
	#DEBUG_VALUE: swap<unsigned long>:__tmp <- $r14
	#DEBUG_VALUE: swap<unsigned long>:__tmp <- $r14
	.loc	59 43 23 is_stmt 1      # /usr/lib/gcc/x86_64-linux-gnu/9/../../../../include/c++/9/bits/predefined_ops.h:43:23
	cmpq	%r13, %r12
.Ltmp272:
	.loc	16 85 13                # /usr/lib/gcc/x86_64-linux-gnu/9/../../../../include/c++/9/bits/stl_algo.h:85:13
	movq	%rsp, current_rsp
	leaq	specfuzz_rtl_frame, %rsp
	callq	specfuzz_chkp
	movq	current_rsp, %rsp
	jmp	.LBB5_55
	jb	.LBB5_12
	jmp	.LBB5_14
.Ltmp273:
.LBB5_55:                               # %if.else.i.i
                                        #   in Loop: Header=BB5_5 Depth=1
	jae	.LBB5_12
.LBB5_14:                               # %if.then22.i.i
                                        #   in Loop: Header=BB5_5 Depth=1
	#DEBUG_VALUE: __introsort_loop<__gnu_cxx::__normal_iterator<unsigned long *, std::vector<unsigned long, std::allocator<unsigned long> > >, long, __gnu_cxx::__ops::_Iter_less_iter>:__depth_limit <- [DW_OP_plus_uconst 32] [$rbx+0]
.Ltmp274:
	#DEBUG_VALUE: swap<unsigned long>:__tmp <- $r14
	#DEBUG_VALUE: __move_median_to_first<__gnu_cxx::__normal_iterator<unsigned long *, std::vector<unsigned long, std::allocator<unsigned long> > >, __gnu_cxx::__ops::_Iter_less_iter>:__c <- [DW_OP_plus_uconst 64] [$rbx+0]
	#DEBUG_VALUE: __move_median_to_first<__gnu_cxx::__normal_iterator<unsigned long *, std::vector<unsigned long, std::allocator<unsigned long> > >, __gnu_cxx::__ops::_Iter_less_iter>:__b <- [DW_OP_plus_uconst 24] [$rbx+0]
	#DEBUG_VALUE: __unguarded_partition_pivot<__gnu_cxx::__normal_iterator<unsigned long *, std::vector<unsigned long, std::allocator<unsigned long> > >, __gnu_cxx::__ops::_Iter_less_iter>:__mid <- [DW_OP_plus_uconst 24] [$rbx+0]
	.loc	61 194 11               # /usr/lib/gcc/x86_64-linux-gnu/9/../../../../include/c++/9/bits/move.h:194:11
	subq	$4, instruction_counter
	movq	%r15, %rdi
	movq	%rsp, current_rsp
	leaq	asan_rtl_frame, %rsp
	callq	__asan_store8
	movq	current_rsp, %rsp
	movq	%rsp, current_rsp
	movq	%r15, tmp_gpr1
	leaq	(%r15), %r15
	movq	checkpoint_sp, %rsp
	pushq	%r15
	pushq	(%r15)
	movq	%rsp, checkpoint_sp
	movq	tmp_gpr1, %r15
	movq	current_rsp, %rsp
	movq	%r13, (%r15)
	movq	%rsp, current_rsp
	leaq	specfuzz_rtl_frame, %rsp
	callq	specfuzz_rlbk_if_done
	movq	current_rsp, %rsp
	jmp	.LBB5_17
.Ltmp275:
	.p2align	4, 0x90
.LBB5_12:                               # %if.else27.i.i
                                        #   in Loop: Header=BB5_5 Depth=1
	#DEBUG_VALUE: __introsort_loop<__gnu_cxx::__normal_iterator<unsigned long *, std::vector<unsigned long, std::allocator<unsigned long> > >, long, __gnu_cxx::__ops::_Iter_less_iter>:__depth_limit <- [DW_OP_plus_uconst 32] [$rbx+0]
	#DEBUG_VALUE: __move_median_to_first<__gnu_cxx::__normal_iterator<unsigned long *, std::vector<unsigned long, std::allocator<unsigned long> > >, __gnu_cxx::__ops::_Iter_less_iter>:__c <- [DW_OP_plus_uconst 64] [$rbx+0]
	#DEBUG_VALUE: __move_median_to_first<__gnu_cxx::__normal_iterator<unsigned long *, std::vector<unsigned long, std::allocator<unsigned long> > >, __gnu_cxx::__ops::_Iter_less_iter>:__b <- [DW_OP_plus_uconst 24] [$rbx+0]
	#DEBUG_VALUE: __unguarded_partition_pivot<__gnu_cxx::__normal_iterator<unsigned long *, std::vector<unsigned long, std::allocator<unsigned long> > >, __gnu_cxx::__ops::_Iter_less_iter>:__mid <- [DW_OP_plus_uconst 24] [$rbx+0]
	.loc	61 194 11 is_stmt 0     # /usr/lib/gcc/x86_64-linux-gnu/9/../../../../include/c++/9/bits/move.h:194:11
	subq	$8, instruction_counter
	movq	%r15, %rdi
	movq	%rsp, current_rsp
	leaq	asan_rtl_frame, %rsp
	callq	__asan_store8
	movq	current_rsp, %rsp
	movq	%rsp, current_rsp
	movq	%r15, tmp_gpr1
	leaq	(%r15), %r15
	movq	checkpoint_sp, %rsp
	pushq	%r15
	pushq	(%r15)
	movq	%rsp, checkpoint_sp
	movq	tmp_gpr1, %r15
	movq	current_rsp, %rsp
	movq	%r12, (%r15)
	movq	(%rbx), %r12            # 8-byte Reload
	.loc	61 195 11 is_stmt 1     # /usr/lib/gcc/x86_64-linux-gnu/9/../../../../include/c++/9/bits/move.h:195:11
	movq	%r12, %rdi
	movq	%rsp, current_rsp
	leaq	asan_rtl_frame, %rsp
	callq	__asan_store8
	movq	current_rsp, %rsp
	movq	%rsp, current_rsp
	movq	%r15, tmp_gpr1
	leaq	8(%r15), %r15
	movq	checkpoint_sp, %rsp
	pushq	%r15
	pushq	(%r15)
	movq	%rsp, checkpoint_sp
	movq	tmp_gpr1, %r15
	movq	current_rsp, %rsp
	movq	%r14, 8(%r15)
	movq	%rsp, current_rsp
	leaq	specfuzz_rtl_frame, %rsp
	callq	specfuzz_rlbk_if_done
	movq	current_rsp, %rsp
	jmp	.LBB5_19
.Ltmp276:
	.p2align	4, 0x90
.LBB5_15:                               # %if.else44.i.i
                                        #   in Loop: Header=BB5_5 Depth=1
	#DEBUG_VALUE: __introsort_loop<__gnu_cxx::__normal_iterator<unsigned long *, std::vector<unsigned long, std::allocator<unsigned long> > >, long, __gnu_cxx::__ops::_Iter_less_iter>:__depth_limit <- [DW_OP_plus_uconst 32] [$rbx+0]
	#DEBUG_VALUE: __move_median_to_first<__gnu_cxx::__normal_iterator<unsigned long *, std::vector<unsigned long, std::allocator<unsigned long> > >, __gnu_cxx::__ops::_Iter_less_iter>:__c <- [DW_OP_plus_uconst 64] [$rbx+0]
	#DEBUG_VALUE: __move_median_to_first<__gnu_cxx::__normal_iterator<unsigned long *, std::vector<unsigned long, std::allocator<unsigned long> > >, __gnu_cxx::__ops::_Iter_less_iter>:__b <- [DW_OP_plus_uconst 24] [$rbx+0]
	#DEBUG_VALUE: __unguarded_partition_pivot<__gnu_cxx::__normal_iterator<unsigned long *, std::vector<unsigned long, std::allocator<unsigned long> > >, __gnu_cxx::__ops::_Iter_less_iter>:__mid <- [DW_OP_plus_uconst 24] [$rbx+0]
	#DEBUG_VALUE: operator()<__gnu_cxx::__normal_iterator<unsigned long *, std::vector<unsigned long, std::allocator<unsigned long> > >, __gnu_cxx::__normal_iterator<unsigned long *, std::vector<unsigned long, std::allocator<unsigned long> > > >:__it1 <- [DW_OP_deref] undef
	#DEBUG_VALUE: operator()<__gnu_cxx::__normal_iterator<unsigned long *, std::vector<unsigned long, std::allocator<unsigned long> > >, __gnu_cxx::__normal_iterator<unsigned long *, std::vector<unsigned long, std::allocator<unsigned long> > > >:__it2 <- [DW_OP_deref] undef
	#DEBUG_VALUE: iter_swap<__gnu_cxx::__normal_iterator<unsigned long *, std::vector<unsigned long, std::allocator<unsigned long> > >, __gnu_cxx::__normal_iterator<unsigned long *, std::vector<unsigned long, std::allocator<unsigned long> > > >:__a <- [DW_OP_deref] undef
	#DEBUG_VALUE: iter_swap<__gnu_cxx::__normal_iterator<unsigned long *, std::vector<unsigned long, std::allocator<unsigned long> > >, __gnu_cxx::__normal_iterator<unsigned long *, std::vector<unsigned long, std::allocator<unsigned long> > > >:__a <- [DW_OP_deref] undef
	#DEBUG_VALUE: iter_swap<__gnu_cxx::__normal_iterator<unsigned long *, std::vector<unsigned long, std::allocator<unsigned long> > >, __gnu_cxx::__normal_iterator<unsigned long *, std::vector<unsigned long, std::allocator<unsigned long> > > >:__b <- [DW_OP_deref] undef
	#DEBUG_VALUE: iter_swap<__gnu_cxx::__normal_iterator<unsigned long *, std::vector<unsigned long, std::allocator<unsigned long> > >, __gnu_cxx::__normal_iterator<unsigned long *, std::vector<unsigned long, std::allocator<unsigned long> > > >:__b <- [DW_OP_deref] undef
	.loc	61 0 11 is_stmt 0       # /usr/lib/gcc/x86_64-linux-gnu/9/../../../../include/c++/9/bits/move.h:0:11
	subq	$5, instruction_counter
	movq	16(%rbx), %r12          # 8-byte Reload
.Ltmp277:
	.loc	61 193 19 is_stmt 1     # /usr/lib/gcc/x86_64-linux-gnu/9/../../../../include/c++/9/bits/move.h:193:19
	movq	%r12, %rdi
	movq	%rsp, current_rsp
	leaq	asan_rtl_frame, %rsp
	callq	__asan_load8
	movq	current_rsp, %rsp
	movq	(%r12), %r14
.Ltmp278:
	#DEBUG_VALUE: swap<unsigned long>:__tmp <- $r14
	#DEBUG_VALUE: swap<unsigned long>:__tmp <- $r14
	.loc	59 43 23                # /usr/lib/gcc/x86_64-linux-gnu/9/../../../../include/c++/9/bits/predefined_ops.h:43:23
	cmpq	%r13, %r15
.Ltmp279:
	.loc	16 92 16                # /usr/lib/gcc/x86_64-linux-gnu/9/../../../../include/c++/9/bits/stl_algo.h:92:16
	movq	%rsp, current_rsp
	leaq	specfuzz_rtl_frame, %rsp
	callq	specfuzz_chkp
	movq	current_rsp, %rsp
	jmp	.LBB5_56
	jb	.LBB5_9
	jmp	.LBB5_16
.Ltmp280:
.LBB5_56:                               # %if.else44.i.i
                                        #   in Loop: Header=BB5_5 Depth=1
	jae	.LBB5_9
.LBB5_16:                               # %if.then50.i.i
                                        #   in Loop: Header=BB5_5 Depth=1
	#DEBUG_VALUE: __introsort_loop<__gnu_cxx::__normal_iterator<unsigned long *, std::vector<unsigned long, std::allocator<unsigned long> > >, long, __gnu_cxx::__ops::_Iter_less_iter>:__depth_limit <- [DW_OP_plus_uconst 32] [$rbx+0]
.Ltmp281:
	#DEBUG_VALUE: swap<unsigned long>:__tmp <- $r14
	#DEBUG_VALUE: __move_median_to_first<__gnu_cxx::__normal_iterator<unsigned long *, std::vector<unsigned long, std::allocator<unsigned long> > >, __gnu_cxx::__ops::_Iter_less_iter>:__c <- [DW_OP_plus_uconst 64] [$rbx+0]
	#DEBUG_VALUE: __move_median_to_first<__gnu_cxx::__normal_iterator<unsigned long *, std::vector<unsigned long, std::allocator<unsigned long> > >, __gnu_cxx::__ops::_Iter_less_iter>:__b <- [DW_OP_plus_uconst 24] [$rbx+0]
	#DEBUG_VALUE: __unguarded_partition_pivot<__gnu_cxx::__normal_iterator<unsigned long *, std::vector<unsigned long, std::allocator<unsigned long> > >, __gnu_cxx::__ops::_Iter_less_iter>:__mid <- [DW_OP_plus_uconst 24] [$rbx+0]
	.loc	61 194 11               # /usr/lib/gcc/x86_64-linux-gnu/9/../../../../include/c++/9/bits/move.h:194:11
	subq	$3, instruction_counter
	movq	%r12, %rdi
	movq	%rsp, current_rsp
	leaq	asan_rtl_frame, %rsp
	callq	__asan_store8
	movq	current_rsp, %rsp
	movq	%rsp, current_rsp
	movq	%r15, tmp_gpr1
	leaq	(%r12), %r15
	movq	checkpoint_sp, %rsp
	pushq	%r15
	pushq	(%r15)
	movq	%rsp, checkpoint_sp
	movq	tmp_gpr1, %r15
	movq	current_rsp, %rsp
	movq	%r13, (%r12)
.Ltmp282:
.LBB5_17:                               # %while.body.i.i24.preheader
                                        #   in Loop: Header=BB5_5 Depth=1
	#DEBUG_VALUE: __introsort_loop<__gnu_cxx::__normal_iterator<unsigned long *, std::vector<unsigned long, std::allocator<unsigned long> > >, long, __gnu_cxx::__ops::_Iter_less_iter>:__depth_limit <- [DW_OP_plus_uconst 32] [$rbx+0]
	.loc	61 0 11 is_stmt 0       # /usr/lib/gcc/x86_64-linux-gnu/9/../../../../include/c++/9/bits/move.h:0:11
	subq	$2, instruction_counter
	movq	64(%rbx), %r15          # 8-byte Reload
	movq	%rsp, current_rsp
	leaq	specfuzz_rtl_frame, %rsp
	callq	specfuzz_rlbk_if_done
	movq	current_rsp, %rsp
	jmp	.LBB5_18
	.p2align	4, 0x90
.LBB5_9:                                # %if.else55.i.i
                                        #   in Loop: Header=BB5_5 Depth=1
	#DEBUG_VALUE: __introsort_loop<__gnu_cxx::__normal_iterator<unsigned long *, std::vector<unsigned long, std::allocator<unsigned long> > >, long, __gnu_cxx::__ops::_Iter_less_iter>:__depth_limit <- [DW_OP_plus_uconst 32] [$rbx+0]
	#DEBUG_VALUE: __move_median_to_first<__gnu_cxx::__normal_iterator<unsigned long *, std::vector<unsigned long, std::allocator<unsigned long> > >, __gnu_cxx::__ops::_Iter_less_iter>:__c <- [DW_OP_plus_uconst 64] [$rbx+0]
	#DEBUG_VALUE: __move_median_to_first<__gnu_cxx::__normal_iterator<unsigned long *, std::vector<unsigned long, std::allocator<unsigned long> > >, __gnu_cxx::__ops::_Iter_less_iter>:__b <- [DW_OP_plus_uconst 24] [$rbx+0]
	#DEBUG_VALUE: __unguarded_partition_pivot<__gnu_cxx::__normal_iterator<unsigned long *, std::vector<unsigned long, std::allocator<unsigned long> > >, __gnu_cxx::__ops::_Iter_less_iter>:__mid <- [DW_OP_plus_uconst 24] [$rbx+0]
.Ltmp283:
	.loc	61 194 11               # /usr/lib/gcc/x86_64-linux-gnu/9/../../../../include/c++/9/bits/move.h:194:11
	subq	$4, instruction_counter
	movq	%r12, %rdi
	movq	%rsp, current_rsp
	leaq	asan_rtl_frame, %rsp
	callq	__asan_store8
	movq	current_rsp, %rsp
	movq	%rsp, current_rsp
	movq	%r15, tmp_gpr1
	leaq	(%r12), %r15
	movq	checkpoint_sp, %rsp
	pushq	%r15
	pushq	(%r15)
	movq	%rsp, checkpoint_sp
	movq	tmp_gpr1, %r15
	movq	current_rsp, %rsp
	movq	%r15, (%r12)
	movq	24(%rbx), %r15          # 8-byte Reload
.LBB5_18:                               # %while.body.i.i24.preheader
                                        #   in Loop: Header=BB5_5 Depth=1
	#DEBUG_VALUE: __introsort_loop<__gnu_cxx::__normal_iterator<unsigned long *, std::vector<unsigned long, std::allocator<unsigned long> > >, long, __gnu_cxx::__ops::_Iter_less_iter>:__depth_limit <- [DW_OP_plus_uconst 32] [$rbx+0]
	.loc	61 195 11 is_stmt 1     # /usr/lib/gcc/x86_64-linux-gnu/9/../../../../include/c++/9/bits/move.h:195:11
	subq	$4, instruction_counter
	movq	%r15, %rdi
	movq	%rsp, current_rsp
	leaq	asan_rtl_frame, %rsp
	callq	__asan_store8
	movq	current_rsp, %rsp
	movq	%rsp, current_rsp
	movq	%r15, tmp_gpr1
	leaq	(%r15), %r15
	movq	checkpoint_sp, %rsp
	pushq	%r15
	pushq	(%r15)
	movq	%rsp, checkpoint_sp
	movq	tmp_gpr1, %r15
	movq	current_rsp, %rsp
	movq	%r14, (%r15)
	movq	(%rbx), %r12            # 8-byte Reload
.Ltmp284:
.LBB5_19:                               # %while.body.i.i24.preheader
                                        #   in Loop: Header=BB5_5 Depth=1
	#DEBUG_VALUE: __introsort_loop<__gnu_cxx::__normal_iterator<unsigned long *, std::vector<unsigned long, std::allocator<unsigned long> > >, long, __gnu_cxx::__ops::_Iter_less_iter>:__depth_limit <- [DW_OP_plus_uconst 32] [$rbx+0]
	.loc	61 0 11 is_stmt 0       # /usr/lib/gcc/x86_64-linux-gnu/9/../../../../include/c++/9/bits/move.h:0:11
	subq	$4, instruction_counter
	movq	%rsp, current_rsp
	movq	%r15, tmp_gpr1
	leaq	32(%rbx), %r15
	movq	checkpoint_sp, %rsp
	pushq	%r15
	pushq	(%r15)
	movq	%rsp, checkpoint_sp
	movq	tmp_gpr1, %r15
	movq	current_rsp, %rsp
	addq	$-1, 32(%rbx)           # 8-byte Folded Spill
	#DEBUG_VALUE: __introsort_loop<__gnu_cxx::__normal_iterator<unsigned long *, std::vector<unsigned long, std::allocator<unsigned long> > >, long, __gnu_cxx::__ops::_Iter_less_iter>:__depth_limit <- [DW_OP_plus_uconst 32] [$rbx+0]
	movq	%r12, %r15
	movq	8(%rbx), %r13           # 8-byte Reload
	movq	%rsp, current_rsp
	leaq	specfuzz_rtl_frame, %rsp
	callq	specfuzz_rlbk_if_done
	movq	current_rsp, %rsp
	jmp	.LBB5_21
	.p2align	4, 0x90
.LBB5_20:                               # %if.end.i.i
                                        #   in Loop: Header=BB5_21 Depth=2
	#DEBUG_VALUE: __introsort_loop<__gnu_cxx::__normal_iterator<unsigned long *, std::vector<unsigned long, std::allocator<unsigned long> > >, long, __gnu_cxx::__ops::_Iter_less_iter>:__depth_limit <- [DW_OP_plus_uconst 32] [$rbx+0]
.Ltmp285:
	#DEBUG_VALUE: iter_swap<__gnu_cxx::__normal_iterator<unsigned long *, std::vector<unsigned long, std::allocator<unsigned long> > >, __gnu_cxx::__normal_iterator<unsigned long *, std::vector<unsigned long, std::allocator<unsigned long> > > >:__a <- [DW_OP_deref] undef
	#DEBUG_VALUE: iter_swap<__gnu_cxx::__normal_iterator<unsigned long *, std::vector<unsigned long, std::allocator<unsigned long> > >, __gnu_cxx::__normal_iterator<unsigned long *, std::vector<unsigned long, std::allocator<unsigned long> > > >:__b <- [DW_OP_deref] undef
	subq	$7, instruction_counter
	movq	%rax, %rdi
.Ltmp286:
	.loc	61 194 11 is_stmt 1     # /usr/lib/gcc/x86_64-linux-gnu/9/../../../../include/c++/9/bits/move.h:194:11
	movq	%rsp, current_rsp
	leaq	asan_rtl_frame, %rsp
	callq	__asan_store8
	movq	current_rsp, %rsp
	movq	24(%rbx), %rax          # 8-byte Reload
	movq	%rsp, current_rsp
	movq	%r15, tmp_gpr1
	leaq	(%rax), %r15
	movq	checkpoint_sp, %rsp
	pushq	%r15
	pushq	(%r15)
	movq	%rsp, checkpoint_sp
	movq	tmp_gpr1, %r15
	movq	current_rsp, %rsp
	movq	%r12, (%rax)
	.loc	61 195 11               # /usr/lib/gcc/x86_64-linux-gnu/9/../../../../include/c++/9/bits/move.h:195:11
	movq	%r13, %rdi
	movq	%rsp, current_rsp
	leaq	asan_rtl_frame, %rsp
	callq	__asan_store8
	movq	current_rsp, %rsp
	movq	%rsp, current_rsp
	movq	%r15, tmp_gpr1
	leaq	(%r13), %r15
	movq	checkpoint_sp, %rsp
	pushq	%r15
	pushq	(%r15)
	movq	%rsp, checkpoint_sp
	movq	tmp_gpr1, %r15
	movq	current_rsp, %rsp
	movq	%r14, (%r13)
.Ltmp287:
	#DEBUG_VALUE: operator++:this <- undef
	#DEBUG_VALUE: __unguarded_partition<__gnu_cxx::__normal_iterator<unsigned long *, std::vector<unsigned long, std::allocator<unsigned long> > >, __gnu_cxx::__ops::_Iter_less_iter>:__first <- [DW_OP_deref] undef
.LBB5_21:                               # %while.body.i.i24
                                        #   Parent Loop BB5_5 Depth=1
                                        # =>  This Loop Header: Depth=2
                                        #       Child Loop BB5_22 Depth 3
                                        #       Child Loop BB5_24 Depth 3
	#DEBUG_VALUE: __introsort_loop<__gnu_cxx::__normal_iterator<unsigned long *, std::vector<unsigned long, std::allocator<unsigned long> > >, long, __gnu_cxx::__ops::_Iter_less_iter>:__depth_limit <- [DW_OP_plus_uconst 32] [$rbx+0]
	.loc	61 0 11 is_stmt 0       # /usr/lib/gcc/x86_64-linux-gnu/9/../../../../include/c++/9/bits/move.h:0:11
	subq	$4, instruction_counter
	movq	16(%rbx), %r14          # 8-byte Reload
	movq	%r14, %rdi
	movq	%rsp, current_rsp
	leaq	asan_rtl_frame, %rsp
	callq	__asan_load8
	movq	current_rsp, %rsp
	movq	(%r14), %r12
	.p2align	4, 0x90
.LBB5_22:                               # %while.cond3.i.i
                                        #   Parent Loop BB5_5 Depth=1
                                        #     Parent Loop BB5_21 Depth=2
                                        # =>    This Inner Loop Header: Depth=3
	#DEBUG_VALUE: __introsort_loop<__gnu_cxx::__normal_iterator<unsigned long *, std::vector<unsigned long, std::allocator<unsigned long> > >, long, __gnu_cxx::__ops::_Iter_less_iter>:__depth_limit <- [DW_OP_plus_uconst 32] [$rbx+0]
.Ltmp288:
	#DEBUG_VALUE: __cut <- $r15
	#DEBUG_VALUE: swap<unsigned long>:__a <- $r15
	#DEBUG_VALUE: operator()<__gnu_cxx::__normal_iterator<unsigned long *, std::vector<unsigned long, std::allocator<unsigned long> > >, __gnu_cxx::__normal_iterator<unsigned long *, std::vector<unsigned long, std::allocator<unsigned long> > > >:__it1 <- [DW_OP_deref] undef
	.loc	59 43 16 is_stmt 1      # /usr/lib/gcc/x86_64-linux-gnu/9/../../../../include/c++/9/bits/predefined_ops.h:43:16
	subq	$5, instruction_counter
	movq	%r15, %rdi
	movq	%rsp, current_rsp
	leaq	asan_rtl_frame, %rsp
	callq	__asan_load8
	movq	current_rsp, %rsp
	movq	(%r15), %r14
.Ltmp289:
	#DEBUG_VALUE: operator++:this <- undef
	#DEBUG_VALUE: __unguarded_partition<__gnu_cxx::__normal_iterator<unsigned long *, std::vector<unsigned long, std::allocator<unsigned long> > >, __gnu_cxx::__ops::_Iter_less_iter>:__first <- [DW_OP_deref] undef
	#DEBUG_VALUE: swap<unsigned long>:__tmp <- $r14
	#DEBUG_VALUE: operator()<__gnu_cxx::__normal_iterator<unsigned long *, std::vector<unsigned long, std::allocator<unsigned long> > >, __gnu_cxx::__normal_iterator<unsigned long *, std::vector<unsigned long, std::allocator<unsigned long> > > >:__it2 <- [DW_OP_deref] undef
	.loc	18 829 2                # /usr/lib/gcc/x86_64-linux-gnu/9/../../../../include/c++/9/bits/stl_iterator.h:829:2
	addq	$8, %r15
.Ltmp290:
	.loc	59 43 23                # /usr/lib/gcc/x86_64-linux-gnu/9/../../../../include/c++/9/bits/predefined_ops.h:43:23
	cmpq	%r12, %r14
.Ltmp291:
	.loc	16 1901 4               # /usr/lib/gcc/x86_64-linux-gnu/9/../../../../include/c++/9/bits/stl_algo.h:1901:4
	movq	%rsp, current_rsp
	leaq	specfuzz_rtl_frame, %rsp
	callq	specfuzz_chkp
	movq	current_rsp, %rsp
	jmp	.LBB5_57
	jae	.LBB5_22
	jmp	.LBB5_23
.Ltmp292:
.LBB5_57:                               # %while.cond3.i.i
                                        #   in Loop: Header=BB5_22 Depth=3
	jb	.LBB5_22
.LBB5_23:                               # %while.cond10.i.i.preheader
                                        #   in Loop: Header=BB5_21 Depth=2
	#DEBUG_VALUE: __introsort_loop<__gnu_cxx::__normal_iterator<unsigned long *, std::vector<unsigned long, std::allocator<unsigned long> > >, long, __gnu_cxx::__ops::_Iter_less_iter>:__depth_limit <- [DW_OP_plus_uconst 32] [$rbx+0]
.Ltmp293:
	.loc	18 841 2                # /usr/lib/gcc/x86_64-linux-gnu/9/../../../../include/c++/9/bits/stl_iterator.h:841:2
	subq	$3, instruction_counter
	leaq	-8(%r15), %rax
	movq	%rsp, current_rsp
	movq	%r15, tmp_gpr1
	leaq	24(%rbx), %r15
	movq	checkpoint_sp, %rsp
	pushq	%r15
	pushq	(%r15)
	movq	%rsp, checkpoint_sp
	movq	tmp_gpr1, %r15
	movq	current_rsp, %rsp
	movq	%rax, 24(%rbx)          # 8-byte Spill
	movq	%rsp, current_rsp
	movq	%r15, tmp_gpr1
	leaq	40(%rbx), %r15
	movq	checkpoint_sp, %rsp
	pushq	%r15
	pushq	(%r15)
	movq	%rsp, checkpoint_sp
	movq	tmp_gpr1, %r15
	movq	current_rsp, %rsp
	movq	%r12, 40(%rbx)          # 8-byte Spill
	.p2align	4, 0x90
.LBB5_24:                               # %while.cond10.i.i
                                        #   Parent Loop BB5_5 Depth=1
                                        #     Parent Loop BB5_21 Depth=2
                                        # =>    This Inner Loop Header: Depth=3
	#DEBUG_VALUE: __introsort_loop<__gnu_cxx::__normal_iterator<unsigned long *, std::vector<unsigned long, std::allocator<unsigned long> > >, long, __gnu_cxx::__ops::_Iter_less_iter>:__depth_limit <- [DW_OP_plus_uconst 32] [$rbx+0]
	.loc	18 0 2 is_stmt 0        # /usr/lib/gcc/x86_64-linux-gnu/9/../../../../include/c++/9/bits/stl_iterator.h:0:2
	subq	$6, instruction_counter
	movq	%r13, %r12
	.loc	18 841 2                # /usr/lib/gcc/x86_64-linux-gnu/9/../../../../include/c++/9/bits/stl_iterator.h:841:2
	leaq	-8(%r13), %r13
.Ltmp294:
	#DEBUG_VALUE: operator()<__gnu_cxx::__normal_iterator<unsigned long *, std::vector<unsigned long, std::allocator<unsigned long> > >, __gnu_cxx::__normal_iterator<unsigned long *, std::vector<unsigned long, std::allocator<unsigned long> > > >:__it2 <- [DW_OP_deref] undef
	#DEBUG_VALUE: operator()<__gnu_cxx::__normal_iterator<unsigned long *, std::vector<unsigned long, std::allocator<unsigned long> > >, __gnu_cxx::__normal_iterator<unsigned long *, std::vector<unsigned long, std::allocator<unsigned long> > > >:__it1 <- [DW_OP_deref] undef
	#DEBUG_VALUE: swap<unsigned long>:__b <- $r13
	.loc	59 43 25 is_stmt 1      # /usr/lib/gcc/x86_64-linux-gnu/9/../../../../include/c++/9/bits/predefined_ops.h:43:25
	movq	%r13, %rdi
	movq	%rsp, current_rsp
	leaq	asan_rtl_frame, %rsp
	callq	__asan_load8
	movq	current_rsp, %rsp
	movq	-8(%r12), %r12
	.loc	59 43 23 is_stmt 0      # /usr/lib/gcc/x86_64-linux-gnu/9/../../../../include/c++/9/bits/predefined_ops.h:43:23
	cmpq	%r12, 40(%rbx)          # 8-byte Folded Reload
.Ltmp295:
	.loc	16 1904 4 is_stmt 1     # /usr/lib/gcc/x86_64-linux-gnu/9/../../../../include/c++/9/bits/stl_algo.h:1904:4
	movq	%rsp, current_rsp
	leaq	specfuzz_rtl_frame, %rsp
	callq	specfuzz_chkp
	movq	current_rsp, %rsp
	jmp	.LBB5_58
	jae	.LBB5_24
	jmp	.LBB5_25
.Ltmp296:
.LBB5_58:                               # %while.cond10.i.i
                                        #   in Loop: Header=BB5_24 Depth=3
	jb	.LBB5_24
.LBB5_25:                               # %while.end18.i.i
                                        #   in Loop: Header=BB5_21 Depth=2
	#DEBUG_VALUE: __introsort_loop<__gnu_cxx::__normal_iterator<unsigned long *, std::vector<unsigned long, std::allocator<unsigned long> > >, long, __gnu_cxx::__ops::_Iter_less_iter>:__depth_limit <- [DW_OP_plus_uconst 32] [$rbx+0]
	#DEBUG_VALUE: __unguarded_partition<__gnu_cxx::__normal_iterator<unsigned long *, std::vector<unsigned long, std::allocator<unsigned long> > >, __gnu_cxx::__ops::_Iter_less_iter>:__first <- [DW_OP_deref] undef
.Ltmp297:
	#DEBUG_VALUE: __unguarded_partition<__gnu_cxx::__normal_iterator<unsigned long *, std::vector<unsigned long, std::allocator<unsigned long> > >, __gnu_cxx::__ops::_Iter_less_iter>:__last <- [DW_OP_deref] undef
	#DEBUG_VALUE: operator<<unsigned long *, std::vector<unsigned long, std::allocator<unsigned long> > >:__lhs <- undef
	#DEBUG_VALUE: operator<<unsigned long *, std::vector<unsigned long, std::allocator<unsigned long> > >:__rhs <- undef
	.loc	16 0 4 is_stmt 0        # /usr/lib/gcc/x86_64-linux-gnu/9/../../../../include/c++/9/bits/stl_algo.h:0:4
	subq	$2, instruction_counter
	movq	24(%rbx), %rax          # 8-byte Reload
.Ltmp298:
	.loc	18 925 27 is_stmt 1     # /usr/lib/gcc/x86_64-linux-gnu/9/../../../../include/c++/9/bits/stl_iterator.h:925:27
	cmpq	%r13, %rax
.Ltmp299:
	.loc	16 1906 8               # /usr/lib/gcc/x86_64-linux-gnu/9/../../../../include/c++/9/bits/stl_algo.h:1906:8
	movq	%rsp, current_rsp
	leaq	specfuzz_rtl_frame, %rsp
	callq	specfuzz_chkp
	movq	current_rsp, %rsp
	jmp	.LBB5_59
	jae	.LBB5_20
	jmp	.LBB5_26
.LBB5_59:                               # %while.end18.i.i
                                        #   in Loop: Header=BB5_21 Depth=2
	jb	.LBB5_20
.Ltmp300:
.LBB5_26:                               # %_ZSt27__unguarded_partition_pivotIN9__gnu_cxx17__normal_iteratorIPmSt6vectorImSaImEEEENS0_5__ops15_Iter_less_iterEET_S9_S9_T0_.exit
                                        #   in Loop: Header=BB5_5 Depth=1
	#DEBUG_VALUE: __introsort_loop<__gnu_cxx::__normal_iterator<unsigned long *, std::vector<unsigned long, std::allocator<unsigned long> > >, long, __gnu_cxx::__ops::_Iter_less_iter>:__depth_limit <- [DW_OP_plus_uconst 32] [$rbx+0]
	.loc	16 0 8 is_stmt 0        # /usr/lib/gcc/x86_64-linux-gnu/9/../../../../include/c++/9/bits/stl_algo.h:0:8
	subq	$14, instruction_counter
	movq	%rax, %r12
	.loc	16 1953 4 is_stmt 1     # /usr/lib/gcc/x86_64-linux-gnu/9/../../../../include/c++/9/bits/stl_algo.h:1953:4
	movq	%rax, %rdi
	movq	8(%rbx), %rsi           # 8-byte Reload
	movq	32(%rbx), %r14          # 8-byte Reload
	movq	%r14, %rdx
	movq	%rsp, current_rsp
	movq	%r15, tmp_gpr1
	leaq	-8(%rsp), %r15
	movq	checkpoint_sp, %rsp
	pushq	%r15
	pushq	(%r15)
	movq	%rsp, checkpoint_sp
	movq	tmp_gpr1, %r15
	movq	current_rsp, %rsp
	callq	_ZSt16__introsort_loopIN9__gnu_cxx17__normal_iteratorIPmSt6vectorImSaImEEEElNS0_5__ops15_Iter_less_iterEEvT_S9_T0_T1_
.Ltmp301:
	#DEBUG_VALUE: operator-<unsigned long *, std::vector<unsigned long, std::allocator<unsigned long> > >:__rhs <- undef
	#DEBUG_VALUE: operator-<unsigned long *, std::vector<unsigned long, std::allocator<unsigned long> > >:__lhs <- undef
	#DEBUG_VALUE: __introsort_loop<__gnu_cxx::__normal_iterator<unsigned long *, std::vector<unsigned long, std::allocator<unsigned long> > >, long, __gnu_cxx::__ops::_Iter_less_iter>:__last <- [DW_OP_deref] undef
	#DEBUG_VALUE: __introsort_loop<__gnu_cxx::__normal_iterator<unsigned long *, std::vector<unsigned long, std::allocator<unsigned long> > >, long, __gnu_cxx::__ops::_Iter_less_iter>:__first <- [DW_OP_deref] undef
	.loc	18 992 27               # /usr/lib/gcc/x86_64-linux-gnu/9/../../../../include/c++/9/bits/stl_iterator.h:992:27
	movq	%r12, %r15
	movq	16(%rbx), %r13          # 8-byte Reload
	subq	%r13, %r15
	movq	%rsp, current_rsp
	movq	%r15, tmp_gpr1
	leaq	8(%rbx), %r15
	movq	checkpoint_sp, %rsp
	pushq	%r15
	pushq	(%r15)
	movq	%rsp, checkpoint_sp
	movq	tmp_gpr1, %r15
	movq	current_rsp, %rsp
	movq	%r12, 8(%rbx)           # 8-byte Spill
.Ltmp302:
	.loc	16 1943 31              # /usr/lib/gcc/x86_64-linux-gnu/9/../../../../include/c++/9/bits/stl_algo.h:1943:31
	cmpq	$128, %r15
	movq	(%rbx), %rdi            # 8-byte Reload
	.loc	16 1943 7 is_stmt 0     # /usr/lib/gcc/x86_64-linux-gnu/9/../../../../include/c++/9/bits/stl_algo.h:1943:7
	movq	%rsp, current_rsp
	leaq	specfuzz_rtl_frame, %rsp
	callq	specfuzz_chkp
	movq	current_rsp, %rsp
	jmp	.LBB5_60
	jle	.LBB5_5
	jmp	.LBB5_44
.LBB5_60:                               # %_ZSt27__unguarded_partition_pivotIN9__gnu_cxx17__normal_iteratorIPmSt6vectorImSaImEEEENS0_5__ops15_Iter_less_iterEET_S9_S9_T0_.exit
                                        #   in Loop: Header=BB5_5 Depth=1
	jg	.LBB5_5
	jmp	.LBB5_44
.LBB5_27:
	.loc	16 0 7                  # /usr/lib/gcc/x86_64-linux-gnu/9/../../../../include/c++/9/bits/stl_algo.h:0:7
	subq	$5, instruction_counter
	xorl	%eax, %eax
	.loc	16 1942 0 is_stmt 1     # /usr/lib/gcc/x86_64-linux-gnu/9/../../../../include/c++/9/bits/stl_algo.h:1942:0
	movq	%rax, %rcx
	movq	%rsp, current_rsp
	movq	%r15, tmp_gpr1
	leaq	80(%rbx), %r15
	movq	checkpoint_sp, %rsp
	pushq	%r15
	pushq	(%r15)
	movq	%rsp, checkpoint_sp
	movq	tmp_gpr1, %r15
	movq	current_rsp, %rsp
	movq	%rax, 80(%rbx)          # 8-byte Spill
	testq	%rax, %rax
	movq	%rsp, current_rsp
	leaq	specfuzz_rtl_frame, %rsp
	callq	specfuzz_chkp
	movq	current_rsp, %rsp
	jmp	.LBB5_61
	je	.LBB5_3
	jmp	.LBB5_2
.LBB5_61:
	.loc	16 0 0 is_stmt 0        # /usr/lib/gcc/x86_64-linux-gnu/9/../../../../include/c++/9/bits/stl_algo.h:0:0
	jne	.LBB5_3
	jmp	.LBB5_2
.LBB5_28:                               # %while.body.i.i.preheader
.Ltmp303:
	#DEBUG_VALUE: __introsort_loop<__gnu_cxx::__normal_iterator<unsigned long *, std::vector<unsigned long, std::allocator<unsigned long> > >, long, __gnu_cxx::__ops::_Iter_less_iter>:__depth_limit <- $r14
	#DEBUG_VALUE: __partial_sort<__gnu_cxx::__normal_iterator<unsigned long *, std::vector<unsigned long, std::allocator<unsigned long> > >, __gnu_cxx::__ops::_Iter_less_iter>:__middle <- [DW_OP_plus_uconst 8] [$rbx+0]
	#DEBUG_VALUE: __partial_sort<__gnu_cxx::__normal_iterator<unsigned long *, std::vector<unsigned long, std::allocator<unsigned long> > >, __gnu_cxx::__ops::_Iter_less_iter>:__last <- [DW_OP_plus_uconst 8] [$rbx+0]
	#DEBUG_VALUE: __heap_select<__gnu_cxx::__normal_iterator<unsigned long *, std::vector<unsigned long, std::allocator<unsigned long> > >, __gnu_cxx::__ops::_Iter_less_iter>:__middle <- [DW_OP_plus_uconst 8] [$rbx+0]
	#DEBUG_VALUE: __heap_select<__gnu_cxx::__normal_iterator<unsigned long *, std::vector<unsigned long, std::allocator<unsigned long> > >, __gnu_cxx::__ops::_Iter_less_iter>:__comp <- [DW_OP_plus_uconst 72, DW_OP_deref] [$rbx+0]
	subq	$7, instruction_counter
	movq	48(%rbx), %r14          # 8-byte Reload
.Ltmp304:
	.loc	16 1667 41 is_stmt 1    # /usr/lib/gcc/x86_64-linux-gnu/9/../../../../include/c++/9/bits/stl_algo.h:1667:41
	movq	%rsp, current_rsp
	movq	%r15, tmp_gpr1
	leaq	2147450884(%r14), %r15
	movq	checkpoint_sp, %rsp
	pushq	%r15
	pushq	(%r15)
	movq	%rsp, checkpoint_sp
	movq	tmp_gpr1, %r15
	movq	current_rsp, %rsp
	movb	$1, 2147450884(%r14)
	.loc	16 1671 7               # /usr/lib/gcc/x86_64-linux-gnu/9/../../../../include/c++/9/bits/stl_algo.h:1671:7
	movq	%r13, %rdi
	movq	8(%rbx), %rsi           # 8-byte Reload
	movq	72(%rbx), %rdx          # 8-byte Reload
	movq	%rsp, current_rsp
	leaq	specfuzz_rtl_frame, %rsp
	callq	specfuzz_rlbk_external_call
	movq	current_rsp, %rsp
	addw	$1, disable_speculation
	callq	_ZSt11__make_heapIN9__gnu_cxx17__normal_iteratorIPmSt6vectorImSaImEEEENS0_5__ops15_Iter_less_iterEEvT_S9_RT0_
	subw	$1, disable_speculation
.Ltmp305:
	#DEBUG_VALUE: operator<<unsigned long *, std::vector<unsigned long, std::allocator<unsigned long> > >:__rhs <- undef
	#DEBUG_VALUE: operator<<unsigned long *, std::vector<unsigned long, std::allocator<unsigned long> > >:__lhs <- undef
	#DEBUG_VALUE: __heap_select<__gnu_cxx::__normal_iterator<unsigned long *, std::vector<unsigned long, std::allocator<unsigned long> > >, __gnu_cxx::__ops::_Iter_less_iter>:__last <- [DW_OP_deref] undef
	.loc	16 1675 5               # /usr/lib/gcc/x86_64-linux-gnu/9/../../../../include/c++/9/bits/stl_algo.h:1675:5
	movq	%rsp, current_rsp
	movq	%r15, tmp_gpr1
	leaq	2147450884(%r14), %r15
	movq	checkpoint_sp, %rsp
	pushq	%r15
	pushq	(%r15)
	movq	%rsp, checkpoint_sp
	movq	tmp_gpr1, %r15
	movq	current_rsp, %rsp
	movb	$-8, 2147450884(%r14)
.Ltmp306:
	#DEBUG_VALUE: operator-<unsigned long *, std::vector<unsigned long, std::allocator<unsigned long> > >:__rhs <- undef
	#DEBUG_VALUE: operator-<unsigned long *, std::vector<unsigned long, std::allocator<unsigned long> > >:__lhs <- undef
	#DEBUG_VALUE: __sort_heap<__gnu_cxx::__normal_iterator<unsigned long *, std::vector<unsigned long, std::allocator<unsigned long> > >, __gnu_cxx::__ops::_Iter_less_iter>:__last <- [DW_OP_deref] undef
	#DEBUG_VALUE: __sort_heap<__gnu_cxx::__normal_iterator<unsigned long *, std::vector<unsigned long, std::allocator<unsigned long> > >, __gnu_cxx::__ops::_Iter_less_iter>:__first <- [DW_OP_deref] undef
	.p2align	4, 0x90
.LBB5_29:                               # %while.body.i.i
                                        # =>This Loop Header: Depth=1
                                        #     Child Loop BB5_31 Depth 2
                                        #     Child Loop BB5_40 Depth 2
	#DEBUG_VALUE: __partial_sort<__gnu_cxx::__normal_iterator<unsigned long *, std::vector<unsigned long, std::allocator<unsigned long> > >, __gnu_cxx::__ops::_Iter_less_iter>:__middle <- [DW_OP_plus_uconst 8] [$rbx+0]
	#DEBUG_VALUE: __partial_sort<__gnu_cxx::__normal_iterator<unsigned long *, std::vector<unsigned long, std::allocator<unsigned long> > >, __gnu_cxx::__ops::_Iter_less_iter>:__last <- [DW_OP_plus_uconst 8] [$rbx+0]
	.loc	16 0 5 is_stmt 0        # /usr/lib/gcc/x86_64-linux-gnu/9/../../../../include/c++/9/bits/stl_algo.h:0:5
	subq	$6, instruction_counter
	movq	8(%rbx), %r14           # 8-byte Reload
.Ltmp307:
	#DEBUG_VALUE: __pop_heap<__gnu_cxx::__normal_iterator<unsigned long *, std::vector<unsigned long, std::allocator<unsigned long> > >, __gnu_cxx::__ops::_Iter_less_iter>:__result <- [DW_OP_deref] undef
	#DEBUG_VALUE: operator--:this <- undef
	#DEBUG_VALUE: __sort_heap<__gnu_cxx::__normal_iterator<unsigned long *, std::vector<unsigned long, std::allocator<unsigned long> > >, __gnu_cxx::__ops::_Iter_less_iter>:__last <- [DW_OP_deref] undef
	.loc	18 841 2 is_stmt 1      # /usr/lib/gcc/x86_64-linux-gnu/9/../../../../include/c++/9/bits/stl_iterator.h:841:2
	leaq	-8(%r14), %r12
.Ltmp308:
	.loc	20 251 28               # /usr/lib/gcc/x86_64-linux-gnu/9/../../../../include/c++/9/bits/stl_heap.h:251:28
	movq	%r12, %rdi
	movq	%rsp, current_rsp
	leaq	asan_rtl_frame, %rsp
	callq	__asan_load8
	movq	current_rsp, %rsp
	movq	-8(%r14), %rax
.Ltmp309:
	#DEBUG_VALUE: __pop_heap<__gnu_cxx::__normal_iterator<unsigned long *, std::vector<unsigned long, std::allocator<unsigned long> > >, __gnu_cxx::__ops::_Iter_less_iter>:__first <- [DW_OP_deref] undef
	#DEBUG_VALUE: __pop_heap<__gnu_cxx::__normal_iterator<unsigned long *, std::vector<unsigned long, std::allocator<unsigned long> > >, __gnu_cxx::__ops::_Iter_less_iter>:__value <- [DW_OP_plus_uconst 24] [$rbx+0]
	#DEBUG_VALUE: __push_heap<__gnu_cxx::__normal_iterator<unsigned long *, std::vector<unsigned long, std::allocator<unsigned long> > >, long, unsigned long, __gnu_cxx::__ops::_Iter_less_val>:__value <- [DW_OP_plus_uconst 24] [$rbx+0]
	.loc	20 252 19               # /usr/lib/gcc/x86_64-linux-gnu/9/../../../../include/c++/9/bits/stl_heap.h:252:19
	movq	%rsp, current_rsp
	movq	%r15, tmp_gpr1
	leaq	24(%rbx), %r15
	movq	checkpoint_sp, %rsp
	pushq	%r15
	pushq	(%r15)
	movq	%rsp, checkpoint_sp
	movq	tmp_gpr1, %r15
	movq	current_rsp, %rsp
	movq	%rax, 24(%rbx)          # 8-byte Spill
	movq	%rsp, current_rsp
	leaq	specfuzz_rtl_frame, %rsp
	callq	specfuzz_rlbk_if_done
	movq	current_rsp, %rsp
	subq	$15, instruction_counter
	movq	%r13, %rdi
	movq	%rsp, current_rsp
	leaq	asan_rtl_frame, %rsp
	callq	__asan_load8
	movq	current_rsp, %rsp
	movq	(%r13), %r15
	#DEBUG_VALUE: __pop_heap<__gnu_cxx::__normal_iterator<unsigned long *, std::vector<unsigned long, std::allocator<unsigned long> > >, __gnu_cxx::__ops::_Iter_less_iter>:__result <- [DW_OP_deref] undef
	.loc	20 252 17 is_stmt 0     # /usr/lib/gcc/x86_64-linux-gnu/9/../../../../include/c++/9/bits/stl_heap.h:252:17
	movq	%r12, %rdi
	movq	%rsp, current_rsp
	leaq	asan_rtl_frame, %rsp
	callq	__asan_store8
	movq	current_rsp, %rsp
	movq	%rsp, current_rsp
	movq	%r15, tmp_gpr1
	leaq	-8(%r14), %r15
	movq	checkpoint_sp, %rsp
	pushq	%r15
	pushq	(%r15)
	movq	%rsp, checkpoint_sp
	movq	tmp_gpr1, %r15
	movq	current_rsp, %rsp
	movq	%r15, -8(%r14)
.Ltmp310:
	#DEBUG_VALUE: operator-<unsigned long *, std::vector<unsigned long, std::allocator<unsigned long> > >:__rhs <- undef
	#DEBUG_VALUE: operator-<unsigned long *, std::vector<unsigned long, std::allocator<unsigned long> > >:__lhs <- undef
	#DEBUG_VALUE: __pop_heap<__gnu_cxx::__normal_iterator<unsigned long *, std::vector<unsigned long, std::allocator<unsigned long> > >, __gnu_cxx::__ops::_Iter_less_iter>:__last <- [DW_OP_deref] undef
	#DEBUG_VALUE: __pop_heap<__gnu_cxx::__normal_iterator<unsigned long *, std::vector<unsigned long, std::allocator<unsigned long> > >, __gnu_cxx::__ops::_Iter_less_iter>:__first <- [DW_OP_deref] undef
	.loc	20 0 17                 # /usr/lib/gcc/x86_64-linux-gnu/9/../../../../include/c++/9/bits/stl_heap.h:0:17
	movq	%rsp, current_rsp
	movq	%r15, tmp_gpr1
	leaq	8(%rbx), %r15
	movq	checkpoint_sp, %rsp
	pushq	%r15
	pushq	(%r15)
	movq	%rsp, checkpoint_sp
	movq	tmp_gpr1, %r15
	movq	current_rsp, %rsp
	movq	%r12, 8(%rbx)           # 8-byte Spill
.Ltmp311:
	.loc	18 992 27 is_stmt 1     # /usr/lib/gcc/x86_64-linux-gnu/9/../../../../include/c++/9/bits/stl_iterator.h:992:27
	subq	%r13, %r12
	movq	%r12, %rcx
	sarq	$3, %rcx
	movq	%r12, %rax
.Ltmp312:
	.loc	20 219 28               # /usr/lib/gcc/x86_64-linux-gnu/9/../../../../include/c++/9/bits/stl_heap.h:219:28
	movq	%rsp, current_rsp
	movq	%r15, tmp_gpr1
	leaq	32(%rbx), %r15
	movq	checkpoint_sp, %rsp
	pushq	%r15
	pushq	(%r15)
	movq	%rsp, checkpoint_sp
	movq	tmp_gpr1, %r15
	movq	current_rsp, %rsp
	movq	%r12, 32(%rbx)          # 8-byte Spill
.Ltmp313:
	#DEBUG_VALUE: __adjust_heap<__gnu_cxx::__normal_iterator<unsigned long *, std::vector<unsigned long, std::allocator<unsigned long> > >, long, unsigned long, __gnu_cxx::__ops::_Iter_less_iter>:__secondChild <- 0
	#DEBUG_VALUE: __adjust_heap<__gnu_cxx::__normal_iterator<unsigned long *, std::vector<unsigned long, std::allocator<unsigned long> > >, long, unsigned long, __gnu_cxx::__ops::_Iter_less_iter>:__topIndex <- 0
	#DEBUG_VALUE: __adjust_heap<__gnu_cxx::__normal_iterator<unsigned long *, std::vector<unsigned long, std::allocator<unsigned long> > >, long, unsigned long, __gnu_cxx::__ops::_Iter_less_iter>:__holeIndex <- 0
	#DEBUG_VALUE: __adjust_heap<__gnu_cxx::__normal_iterator<unsigned long *, std::vector<unsigned long, std::allocator<unsigned long> > >, long, unsigned long, __gnu_cxx::__ops::_Iter_less_iter>:__len <- $rcx
	#DEBUG_VALUE: __adjust_heap<__gnu_cxx::__normal_iterator<unsigned long *, std::vector<unsigned long, std::allocator<unsigned long> > >, long, unsigned long, __gnu_cxx::__ops::_Iter_less_iter>:__value <- [DW_OP_plus_uconst 24] [$rbx+0]
	cmpq	$17, %r12
	.loc	20 219 7 is_stmt 0      # /usr/lib/gcc/x86_64-linux-gnu/9/../../../../include/c++/9/bits/stl_heap.h:219:7
	movq	%rsp, current_rsp
	movq	%r15, tmp_gpr1
	leaq	(%rbx), %r15
	movq	checkpoint_sp, %rsp
	pushq	%r15
	pushq	(%r15)
	movq	%rsp, checkpoint_sp
	movq	tmp_gpr1, %r15
	movq	current_rsp, %rsp
	movq	%rcx, (%rbx)            # 8-byte Spill
	movq	%rsp, current_rsp
	leaq	specfuzz_rtl_frame, %rsp
	callq	specfuzz_chkp
	movq	current_rsp, %rsp
	jmp	.LBB5_62
	jge	.LBB5_36
	jmp	.LBB5_30
.Ltmp314:
.LBB5_62:                               # %while.body.i.i
                                        #   in Loop: Header=BB5_29 Depth=1
	jl	.LBB5_36
.LBB5_30:                               # %while.body.i.i.i.i.preheader
                                        #   in Loop: Header=BB5_29 Depth=1
	.loc	20 0 7                  # /usr/lib/gcc/x86_64-linux-gnu/9/../../../../include/c++/9/bits/stl_heap.h:0:7
	subq	$7, instruction_counter
	leaq	-1(%rcx), %rax
	shrq	$63, %rax
	addq	%rcx, %rax
	addq	$-1, %rax
	sarq	%rax
	movq	%rsp, current_rsp
	movq	%r15, tmp_gpr1
	leaq	40(%rbx), %r15
	movq	checkpoint_sp, %rsp
	pushq	%r15
	pushq	(%r15)
	movq	%rsp, checkpoint_sp
	movq	tmp_gpr1, %r15
	movq	current_rsp, %rsp
	movq	%rax, 40(%rbx)          # 8-byte Spill
	xorl	%r15d, %r15d
	.p2align	4, 0x90
.LBB5_31:                               # %while.body.i.i.i.i
                                        #   Parent Loop BB5_29 Depth=1
                                        # =>  This Inner Loop Header: Depth=2
.Ltmp315:
	#DEBUG_VALUE: __adjust_heap<__gnu_cxx::__normal_iterator<unsigned long *, std::vector<unsigned long, std::allocator<unsigned long> > >, long, unsigned long, __gnu_cxx::__ops::_Iter_less_iter>:__holeIndex <- $r15
	#DEBUG_VALUE: operator+:__n <- $r15
	.loc	20 221 22 is_stmt 1     # /usr/lib/gcc/x86_64-linux-gnu/9/../../../../include/c++/9/bits/stl_heap.h:221:22
	subq	$14, instruction_counter
	leaq	(%r15,%r15), %r14
.Ltmp316:
	#DEBUG_VALUE: operator+:this <- undef
	#DEBUG_VALUE: __adjust_heap<__gnu_cxx::__normal_iterator<unsigned long *, std::vector<unsigned long, std::allocator<unsigned long> > >, long, unsigned long, __gnu_cxx::__ops::_Iter_less_iter>:__first <- [DW_OP_deref] undef
	.loc	18 860 45               # /usr/lib/gcc/x86_64-linux-gnu/9/../../../../include/c++/9/bits/stl_iterator.h:860:45
	leaq	16(,%r14,8), %rdi
	addq	%r13, %rdi
.Ltmp317:
	#DEBUG_VALUE: operator+:this <- undef
	#DEBUG_VALUE: __adjust_heap<__gnu_cxx::__normal_iterator<unsigned long *, std::vector<unsigned long, std::allocator<unsigned long> > >, long, unsigned long, __gnu_cxx::__ops::_Iter_less_iter>:__first <- [DW_OP_deref] undef
	.loc	18 860 45 is_stmt 0     # /usr/lib/gcc/x86_64-linux-gnu/9/../../../../include/c++/9/bits/stl_iterator.h:860:45
	leaq	8(,%r14,8), %r12
	addq	%r13, %r12
.Ltmp318:
	#DEBUG_VALUE: operator()<__gnu_cxx::__normal_iterator<unsigned long *, std::vector<unsigned long, std::allocator<unsigned long> > >, __gnu_cxx::__normal_iterator<unsigned long *, std::vector<unsigned long, std::allocator<unsigned long> > > >:__it1 <- [DW_OP_deref] undef
	.loc	59 43 16 is_stmt 1      # /usr/lib/gcc/x86_64-linux-gnu/9/../../../../include/c++/9/bits/predefined_ops.h:43:16
	movq	%rsp, current_rsp
	leaq	asan_rtl_frame, %rsp
	callq	__asan_load8
	movq	current_rsp, %rsp
	movq	16(%rbx), %rax          # 8-byte Reload
	movq	16(%rax,%r14,8), %r13
.Ltmp319:
	#DEBUG_VALUE: operator()<__gnu_cxx::__normal_iterator<unsigned long *, std::vector<unsigned long, std::allocator<unsigned long> > >, __gnu_cxx::__normal_iterator<unsigned long *, std::vector<unsigned long, std::allocator<unsigned long> > > >:__it2 <- [DW_OP_deref] undef
	.loc	59 43 25 is_stmt 0      # /usr/lib/gcc/x86_64-linux-gnu/9/../../../../include/c++/9/bits/predefined_ops.h:43:25
	movq	%r12, %rdi
	movq	%rsp, current_rsp
	leaq	asan_rtl_frame, %rsp
	callq	__asan_load8
	movq	current_rsp, %rsp
	.loc	59 43 23                # /usr/lib/gcc/x86_64-linux-gnu/9/../../../../include/c++/9/bits/predefined_ops.h:43:23
	movq	16(%rbx), %rax          # 8-byte Reload
	cmpq	8(%rax,%r14,8), %r13
	movq	16(%rbx), %r13          # 8-byte Reload
.Ltmp320:
	.loc	20 222 8 is_stmt 1      # /usr/lib/gcc/x86_64-linux-gnu/9/../../../../include/c++/9/bits/stl_heap.h:222:8
	movq	%rsp, current_rsp
	leaq	specfuzz_rtl_frame, %rsp
	callq	specfuzz_chkp
	movq	current_rsp, %rsp
	jmp	.LBB5_63
	jae	.LBB5_33
	jmp	.LBB5_32
.Ltmp321:
.LBB5_63:                               # %while.body.i.i.i.i
                                        #   in Loop: Header=BB5_31 Depth=2
	jb	.LBB5_33
.LBB5_32:                               # %while.body.i.i.i.i
                                        #   in Loop: Header=BB5_31 Depth=2
.Ltmp322:
	#DEBUG_VALUE: __adjust_heap<__gnu_cxx::__normal_iterator<unsigned long *, std::vector<unsigned long, std::allocator<unsigned long> > >, long, unsigned long, __gnu_cxx::__ops::_Iter_less_iter>:__holeIndex <- $r15
	.loc	20 0 8 is_stmt 0        # /usr/lib/gcc/x86_64-linux-gnu/9/../../../../include/c++/9/bits/stl_heap.h:0:8
	subq	$3, instruction_counter
	leaq	(%r15,%r15), %r12
	addq	$2, %r12
.Ltmp323:
	#DEBUG_VALUE: operator+:__n <- $r12
	#DEBUG_VALUE: __adjust_heap<__gnu_cxx::__normal_iterator<unsigned long *, std::vector<unsigned long, std::allocator<unsigned long> > >, long, unsigned long, __gnu_cxx::__ops::_Iter_less_iter>:__secondChild <- $r12
	movq	%rsp, current_rsp
	leaq	specfuzz_rtl_frame, %rsp
	callq	specfuzz_rlbk_if_done
	movq	current_rsp, %rsp
	jmp	.LBB5_34
.Ltmp324:
	.p2align	4, 0x90
.LBB5_33:                               #   in Loop: Header=BB5_31 Depth=2
	#DEBUG_VALUE: __adjust_heap<__gnu_cxx::__normal_iterator<unsigned long *, std::vector<unsigned long, std::allocator<unsigned long> > >, long, unsigned long, __gnu_cxx::__ops::_Iter_less_iter>:__holeIndex <- $r15
	subq	$2, instruction_counter
	leaq	(%r15,%r15), %r12
	addq	$1, %r12
.Ltmp325:
	#DEBUG_VALUE: operator+:__n <- $r12
.LBB5_34:                               # %while.body.i.i.i.i
                                        #   in Loop: Header=BB5_31 Depth=2
	#DEBUG_VALUE: __adjust_heap<__gnu_cxx::__normal_iterator<unsigned long *, std::vector<unsigned long, std::allocator<unsigned long> > >, long, unsigned long, __gnu_cxx::__ops::_Iter_less_iter>:__holeIndex <- $r15
	#DEBUG_VALUE: __adjust_heap<__gnu_cxx::__normal_iterator<unsigned long *, std::vector<unsigned long, std::allocator<unsigned long> > >, long, unsigned long, __gnu_cxx::__ops::_Iter_less_iter>:__holeIndex <- $r12
	#DEBUG_VALUE: __adjust_heap<__gnu_cxx::__normal_iterator<unsigned long *, std::vector<unsigned long, std::allocator<unsigned long> > >, long, unsigned long, __gnu_cxx::__ops::_Iter_less_iter>:__secondChild <- $r12
	#DEBUG_VALUE: __adjust_heap<__gnu_cxx::__normal_iterator<unsigned long *, std::vector<unsigned long, std::allocator<unsigned long> > >, long, unsigned long, __gnu_cxx::__ops::_Iter_less_iter>:__first <- [DW_OP_deref] undef
	#DEBUG_VALUE: operator+:__n <- $r12
	#DEBUG_VALUE: operator+:this <- undef
	.loc	18 860 45 is_stmt 1     # /usr/lib/gcc/x86_64-linux-gnu/9/../../../../include/c++/9/bits/stl_iterator.h:860:45
	subq	$10, instruction_counter
	leaq	(,%r12,8), %rdi
	addq	%r13, %rdi
.Ltmp326:
	.loc	20 225 31               # /usr/lib/gcc/x86_64-linux-gnu/9/../../../../include/c++/9/bits/stl_heap.h:225:31
	movq	%rsp, current_rsp
	leaq	asan_rtl_frame, %rsp
	callq	__asan_load8
	movq	current_rsp, %rsp
	movq	(%r13,%r12,8), %r14
.Ltmp327:
	#DEBUG_VALUE: operator+:this <- undef
	#DEBUG_VALUE: __adjust_heap<__gnu_cxx::__normal_iterator<unsigned long *, std::vector<unsigned long, std::allocator<unsigned long> > >, long, unsigned long, __gnu_cxx::__ops::_Iter_less_iter>:__first <- [DW_OP_deref] undef
	.loc	18 860 45               # /usr/lib/gcc/x86_64-linux-gnu/9/../../../../include/c++/9/bits/stl_iterator.h:860:45
	leaq	(,%r15,8), %rdi
	addq	%r13, %rdi
.Ltmp328:
	.loc	20 225 29               # /usr/lib/gcc/x86_64-linux-gnu/9/../../../../include/c++/9/bits/stl_heap.h:225:29
	movq	%rsp, current_rsp
	leaq	asan_rtl_frame, %rsp
	callq	__asan_store8
	movq	current_rsp, %rsp
	movq	%rsp, current_rsp
	movq	%r15, tmp_gpr1
	leaq	(%r13,%r15,8), %r15
	movq	checkpoint_sp, %rsp
	pushq	%r15
	pushq	(%r15)
	movq	%rsp, checkpoint_sp
	movq	tmp_gpr1, %r15
	movq	current_rsp, %rsp
	movq	%r14, (%r13,%r15,8)
	movq	%r12, %r15
.Ltmp329:
	.loc	20 219 28               # /usr/lib/gcc/x86_64-linux-gnu/9/../../../../include/c++/9/bits/stl_heap.h:219:28
	cmpq	40(%rbx), %r12          # 8-byte Folded Reload
	.loc	20 219 7 is_stmt 0      # /usr/lib/gcc/x86_64-linux-gnu/9/../../../../include/c++/9/bits/stl_heap.h:219:7
	movq	%rsp, current_rsp
	leaq	specfuzz_rtl_frame, %rsp
	callq	specfuzz_chkp
	movq	current_rsp, %rsp
	jmp	.LBB5_64
	jge	.LBB5_31
	jmp	.LBB5_35
.Ltmp330:
.LBB5_64:                               # %while.body.i.i.i.i
                                        #   in Loop: Header=BB5_31 Depth=2
	jl	.LBB5_31
.LBB5_35:                               # %while.end.i.i.i.i
                                        #   in Loop: Header=BB5_29 Depth=1
.Ltmp331:
	#DEBUG_VALUE: __adjust_heap<__gnu_cxx::__normal_iterator<unsigned long *, std::vector<unsigned long, std::allocator<unsigned long> > >, long, unsigned long, __gnu_cxx::__ops::_Iter_less_iter>:__holeIndex <- $r12
	#DEBUG_VALUE: __adjust_heap<__gnu_cxx::__normal_iterator<unsigned long *, std::vector<unsigned long, std::allocator<unsigned long> > >, long, unsigned long, __gnu_cxx::__ops::_Iter_less_iter>:__secondChild <- $r12
	#DEBUG_VALUE: __adjust_heap<__gnu_cxx::__normal_iterator<unsigned long *, std::vector<unsigned long, std::allocator<unsigned long> > >, long, unsigned long, __gnu_cxx::__ops::_Iter_less_iter>:__holeIndex <- $r12
	#DEBUG_VALUE: operator+:__n <- $r12
	.loc	20 228 23 is_stmt 1     # /usr/lib/gcc/x86_64-linux-gnu/9/../../../../include/c++/9/bits/stl_heap.h:228:23
	subq	$3, instruction_counter
	testb	$8, 32(%rbx)            # 1-byte Folded Reload
	.loc	20 228 28 is_stmt 0     # /usr/lib/gcc/x86_64-linux-gnu/9/../../../../include/c++/9/bits/stl_heap.h:228:28
	movq	%rsp, current_rsp
	leaq	specfuzz_rtl_frame, %rsp
	callq	specfuzz_chkp
	movq	current_rsp, %rsp
	jmp	.LBB5_65
	jne	.LBB5_37
	jmp	.LBB5_39
.Ltmp332:
.LBB5_65:                               # %while.end.i.i.i.i
                                        #   in Loop: Header=BB5_29 Depth=1
	je	.LBB5_37
	jmp	.LBB5_39
.Ltmp333:
	.p2align	4, 0x90
.LBB5_36:                               #   in Loop: Header=BB5_29 Depth=1
	#DEBUG_VALUE: __adjust_heap<__gnu_cxx::__normal_iterator<unsigned long *, std::vector<unsigned long, std::allocator<unsigned long> > >, long, unsigned long, __gnu_cxx::__ops::_Iter_less_iter>:__value <- [DW_OP_plus_uconst 24] [$rbx+0]
	#DEBUG_VALUE: __adjust_heap<__gnu_cxx::__normal_iterator<unsigned long *, std::vector<unsigned long, std::allocator<unsigned long> > >, long, unsigned long, __gnu_cxx::__ops::_Iter_less_iter>:__len <- $rcx
	#DEBUG_VALUE: __pop_heap<__gnu_cxx::__normal_iterator<unsigned long *, std::vector<unsigned long, std::allocator<unsigned long> > >, __gnu_cxx::__ops::_Iter_less_iter>:__value <- [DW_OP_plus_uconst 24] [$rbx+0]
	#DEBUG_VALUE: __partial_sort<__gnu_cxx::__normal_iterator<unsigned long *, std::vector<unsigned long, std::allocator<unsigned long> > >, __gnu_cxx::__ops::_Iter_less_iter>:__middle <- [DW_OP_plus_uconst 8] [$rbx+0]
	#DEBUG_VALUE: __partial_sort<__gnu_cxx::__normal_iterator<unsigned long *, std::vector<unsigned long, std::allocator<unsigned long> > >, __gnu_cxx::__ops::_Iter_less_iter>:__last <- [DW_OP_plus_uconst 8] [$rbx+0]
	.loc	20 0 0                  # /usr/lib/gcc/x86_64-linux-gnu/9/../../../../include/c++/9/bits/stl_heap.h:0:0
	subq	$2, instruction_counter
	xorl	%r12d, %r12d
.Ltmp334:
	#DEBUG_VALUE: __adjust_heap<__gnu_cxx::__normal_iterator<unsigned long *, std::vector<unsigned long, std::allocator<unsigned long> > >, long, unsigned long, __gnu_cxx::__ops::_Iter_less_iter>:__holeIndex <- $r12
	#DEBUG_VALUE: operator+:__n <- $r12
	.loc	20 228 23               # /usr/lib/gcc/x86_64-linux-gnu/9/../../../../include/c++/9/bits/stl_heap.h:228:23
	testb	$8, 32(%rbx)            # 1-byte Folded Reload
	.loc	20 228 28               # /usr/lib/gcc/x86_64-linux-gnu/9/../../../../include/c++/9/bits/stl_heap.h:228:28
	movq	%rsp, current_rsp
	leaq	specfuzz_rtl_frame, %rsp
	callq	specfuzz_chkp
	movq	current_rsp, %rsp
	jmp	.LBB5_66
	je	.LBB5_39
	jmp	.LBB5_37
.Ltmp335:
.LBB5_66:                               #   in Loop: Header=BB5_29 Depth=1
	jne	.LBB5_39
.LBB5_37:                               # %land.lhs.true.i.i.i.i
                                        #   in Loop: Header=BB5_29 Depth=1
.Ltmp336:
	#DEBUG_VALUE: __adjust_heap<__gnu_cxx::__normal_iterator<unsigned long *, std::vector<unsigned long, std::allocator<unsigned long> > >, long, unsigned long, __gnu_cxx::__ops::_Iter_less_iter>:__holeIndex <- $r12
	.loc	20 0 28                 # /usr/lib/gcc/x86_64-linux-gnu/9/../../../../include/c++/9/bits/stl_heap.h:0:28
	subq	$7, instruction_counter
	movq	(%rbx), %rcx            # 8-byte Reload
	.loc	20 228 55               # /usr/lib/gcc/x86_64-linux-gnu/9/../../../../include/c++/9/bits/stl_heap.h:228:55
	leaq	-2(%rcx), %rax
	.loc	20 228 60               # /usr/lib/gcc/x86_64-linux-gnu/9/../../../../include/c++/9/bits/stl_heap.h:228:60
	shrq	$63, %rax
	addq	%rcx, %rax
	addq	$-2, %rax
	sarq	%rax
	.loc	20 228 45               # /usr/lib/gcc/x86_64-linux-gnu/9/../../../../include/c++/9/bits/stl_heap.h:228:45
	cmpq	%rax, %r12
.Ltmp337:
	.loc	20 228 11               # /usr/lib/gcc/x86_64-linux-gnu/9/../../../../include/c++/9/bits/stl_heap.h:228:11
	movq	%rsp, current_rsp
	leaq	specfuzz_rtl_frame, %rsp
	callq	specfuzz_chkp
	movq	current_rsp, %rsp
	jmp	.LBB5_67
	je	.LBB5_39
	jmp	.LBB5_38
.Ltmp338:
.LBB5_67:                               # %land.lhs.true.i.i.i.i
                                        #   in Loop: Header=BB5_29 Depth=1
	jne	.LBB5_39
.LBB5_38:                               # %if.then21.i.i.i.i
                                        #   in Loop: Header=BB5_29 Depth=1
.Ltmp339:
	#DEBUG_VALUE: __adjust_heap<__gnu_cxx::__normal_iterator<unsigned long *, std::vector<unsigned long, std::allocator<unsigned long> > >, long, unsigned long, __gnu_cxx::__ops::_Iter_less_iter>:__holeIndex <- $r12
	.loc	20 230 22 is_stmt 1     # /usr/lib/gcc/x86_64-linux-gnu/9/../../../../include/c++/9/bits/stl_heap.h:230:22
	subq	$12, instruction_counter
	leaq	(%r12,%r12), %r14
.Ltmp340:
	#DEBUG_VALUE: __adjust_heap<__gnu_cxx::__normal_iterator<unsigned long *, std::vector<unsigned long, std::allocator<unsigned long> > >, long, unsigned long, __gnu_cxx::__ops::_Iter_less_iter>:__secondChild <- [DW_OP_plus_uconst 2, DW_OP_stack_value] $r14
	.loc	20 231 31               # /usr/lib/gcc/x86_64-linux-gnu/9/../../../../include/c++/9/bits/stl_heap.h:231:31
	leaq	(%r12,%r12), %r15
	addq	$1, %r15
.Ltmp341:
	#DEBUG_VALUE: operator+:__n <- $r15
	#DEBUG_VALUE: operator+:this <- undef
	#DEBUG_VALUE: __adjust_heap<__gnu_cxx::__normal_iterator<unsigned long *, std::vector<unsigned long, std::allocator<unsigned long> > >, long, unsigned long, __gnu_cxx::__ops::_Iter_less_iter>:__first <- [DW_OP_deref] undef
	#DEBUG_VALUE: __adjust_heap<__gnu_cxx::__normal_iterator<unsigned long *, std::vector<unsigned long, std::allocator<unsigned long> > >, long, unsigned long, __gnu_cxx::__ops::_Iter_less_iter>:__holeIndex <- $r15
	.loc	18 860 45               # /usr/lib/gcc/x86_64-linux-gnu/9/../../../../include/c++/9/bits/stl_iterator.h:860:45
	leaq	8(,%r14,8), %rdi
	addq	%r13, %rdi
.Ltmp342:
	.loc	20 231 31               # /usr/lib/gcc/x86_64-linux-gnu/9/../../../../include/c++/9/bits/stl_heap.h:231:31
	movq	%rsp, current_rsp
	leaq	asan_rtl_frame, %rsp
	callq	__asan_load8
	movq	current_rsp, %rsp
	movq	8(%r13,%r14,8), %r14
.Ltmp343:
	#DEBUG_VALUE: operator+:this <- undef
	#DEBUG_VALUE: __adjust_heap<__gnu_cxx::__normal_iterator<unsigned long *, std::vector<unsigned long, std::allocator<unsigned long> > >, long, unsigned long, __gnu_cxx::__ops::_Iter_less_iter>:__first <- [DW_OP_deref] undef
	.loc	18 860 45               # /usr/lib/gcc/x86_64-linux-gnu/9/../../../../include/c++/9/bits/stl_iterator.h:860:45
	leaq	(,%r12,8), %rdi
	addq	%r13, %rdi
.Ltmp344:
	.loc	20 231 29               # /usr/lib/gcc/x86_64-linux-gnu/9/../../../../include/c++/9/bits/stl_heap.h:231:29
	movq	%rsp, current_rsp
	leaq	asan_rtl_frame, %rsp
	callq	__asan_store8
	movq	current_rsp, %rsp
	movq	%rsp, current_rsp
	movq	%r15, tmp_gpr1
	leaq	(%r13,%r12,8), %r15
.Ltmp345:
	movq	checkpoint_sp, %rsp
	pushq	%r15
	pushq	(%r15)
	movq	%rsp, checkpoint_sp
	movq	tmp_gpr1, %r15
	movq	current_rsp, %rsp
	movq	%r14, (%r13,%r12,8)
	movq	%r15, %r12
.Ltmp346:
	#DEBUG_VALUE: __adjust_heap<__gnu_cxx::__normal_iterator<unsigned long *, std::vector<unsigned long, std::allocator<unsigned long> > >, long, unsigned long, __gnu_cxx::__ops::_Iter_less_iter>:__holeIndex <- $r12
	#DEBUG_VALUE: operator+:__n <- $r12
	#DEBUG_VALUE: __adjust_heap<__gnu_cxx::__normal_iterator<unsigned long *, std::vector<unsigned long, std::allocator<unsigned long> > >, long, unsigned long, __gnu_cxx::__ops::_Iter_less_iter>:__holeIndex <- $r12
.LBB5_39:                               # %if.end35.i.i.i.i
                                        #   in Loop: Header=BB5_29 Depth=1
	#DEBUG_VALUE: __adjust_heap<__gnu_cxx::__normal_iterator<unsigned long *, std::vector<unsigned long, std::allocator<unsigned long> > >, long, unsigned long, __gnu_cxx::__ops::_Iter_less_iter>:__holeIndex <- $r12
	#DEBUG_VALUE: __adjust_heap<__gnu_cxx::__normal_iterator<unsigned long *, std::vector<unsigned long, std::allocator<unsigned long> > >, long, unsigned long, __gnu_cxx::__ops::_Iter_less_iter>:__holeIndex <- $r12
	#DEBUG_VALUE: __adjust_heap<__gnu_cxx::__normal_iterator<unsigned long *, std::vector<unsigned long, std::allocator<unsigned long> > >, long, unsigned long, __gnu_cxx::__ops::_Iter_less_iter>:__cmp <- [DW_OP_deref] undef
	#DEBUG_VALUE: __push_heap<__gnu_cxx::__normal_iterator<unsigned long *, std::vector<unsigned long, std::allocator<unsigned long> > >, long, unsigned long, __gnu_cxx::__ops::_Iter_less_val>:__holeIndex <- $r12
	#DEBUG_VALUE: __push_heap<__gnu_cxx::__normal_iterator<unsigned long *, std::vector<unsigned long, std::allocator<unsigned long> > >, long, unsigned long, __gnu_cxx::__ops::_Iter_less_val>:__topIndex <- 0
	#DEBUG_VALUE: __push_heap<__gnu_cxx::__normal_iterator<unsigned long *, std::vector<unsigned long, std::allocator<unsigned long> > >, long, unsigned long, __gnu_cxx::__ops::_Iter_less_val>:__comp <- undef
	#DEBUG_VALUE: __push_heap<__gnu_cxx::__normal_iterator<unsigned long *, std::vector<unsigned long, std::allocator<unsigned long> > >, long, unsigned long, __gnu_cxx::__ops::_Iter_less_val>:__parent <- [DW_OP_constu 1, DW_OP_minus, DW_OP_constu 2, DW_OP_div, DW_OP_stack_value] $r12
	.loc	20 133 26               # /usr/lib/gcc/x86_64-linux-gnu/9/../../../../include/c++/9/bits/stl_heap.h:133:26
	subq	$2, instruction_counter
	testq	%r12, %r12
	.loc	20 133 39 is_stmt 0     # /usr/lib/gcc/x86_64-linux-gnu/9/../../../../include/c++/9/bits/stl_heap.h:133:39
	movq	%rsp, current_rsp
	leaq	specfuzz_rtl_frame, %rsp
	callq	specfuzz_chkp
	movq	current_rsp, %rsp
	jmp	.LBB5_68
	jg	.LBB5_42
	jmp	.LBB5_40
.Ltmp347:
.LBB5_68:                               # %if.end35.i.i.i.i
                                        #   in Loop: Header=BB5_29 Depth=1
	jle	.LBB5_42
	.p2align	4, 0x90
.LBB5_40:                               # %land.rhs.i.i.i.i.i
                                        #   Parent Loop BB5_29 Depth=1
                                        # =>  This Inner Loop Header: Depth=2
.Ltmp348:
	#DEBUG_VALUE: __push_heap<__gnu_cxx::__normal_iterator<unsigned long *, std::vector<unsigned long, std::allocator<unsigned long> > >, long, unsigned long, __gnu_cxx::__ops::_Iter_less_val>:__parent <- [DW_OP_constu 1, DW_OP_minus, DW_OP_constu 2, DW_OP_div, DW_OP_stack_value] $r12
	#DEBUG_VALUE: __push_heap<__gnu_cxx::__normal_iterator<unsigned long *, std::vector<unsigned long, std::allocator<unsigned long> > >, long, unsigned long, __gnu_cxx::__ops::_Iter_less_val>:__holeIndex <- $r12
	#DEBUG_VALUE: __adjust_heap<__gnu_cxx::__normal_iterator<unsigned long *, std::vector<unsigned long, std::allocator<unsigned long> > >, long, unsigned long, __gnu_cxx::__ops::_Iter_less_iter>:__holeIndex <- $r12
	#DEBUG_VALUE: __push_heap<__gnu_cxx::__normal_iterator<unsigned long *, std::vector<unsigned long, std::allocator<unsigned long> > >, long, unsigned long, __gnu_cxx::__ops::_Iter_less_val>:__holeIndex <- $r12
	#DEBUG_VALUE: operator+:__n <- $r12
	.loc	20 0 0                  # /usr/lib/gcc/x86_64-linux-gnu/9/../../../../include/c++/9/bits/stl_heap.h:0:0
	subq	$10, instruction_counter
	leaq	-1(%r12), %rax
	shrq	$63, %rax
	leaq	(%r12,%rax), %r14
	addq	$-1, %r14
	sarq	%r14
.Ltmp349:
	#DEBUG_VALUE: operator+:__n <- $r14
	#DEBUG_VALUE: operator+:this <- undef
	#DEBUG_VALUE: __push_heap<__gnu_cxx::__normal_iterator<unsigned long *, std::vector<unsigned long, std::allocator<unsigned long> > >, long, unsigned long, __gnu_cxx::__ops::_Iter_less_val>:__first <- [DW_OP_deref] undef
	#DEBUG_VALUE: __push_heap<__gnu_cxx::__normal_iterator<unsigned long *, std::vector<unsigned long, std::allocator<unsigned long> > >, long, unsigned long, __gnu_cxx::__ops::_Iter_less_val>:__parent <- [DW_OP_constu 1, DW_OP_minus, DW_OP_constu 2, DW_OP_div, DW_OP_stack_value] $r14
	#DEBUG_VALUE: __push_heap<__gnu_cxx::__normal_iterator<unsigned long *, std::vector<unsigned long, std::allocator<unsigned long> > >, long, unsigned long, __gnu_cxx::__ops::_Iter_less_val>:__holeIndex <- $r14
	.loc	18 860 45 is_stmt 1     # /usr/lib/gcc/x86_64-linux-gnu/9/../../../../include/c++/9/bits/stl_iterator.h:860:45
	leaq	(,%r14,8), %rdi
	addq	%r13, %rdi
.Ltmp350:
	#DEBUG_VALUE: operator()<__gnu_cxx::__normal_iterator<unsigned long *, std::vector<unsigned long, std::allocator<unsigned long> > >, unsigned long>:__it <- [DW_OP_deref] undef
	#DEBUG_VALUE: operator()<__gnu_cxx::__normal_iterator<unsigned long *, std::vector<unsigned long, std::allocator<unsigned long> > >, unsigned long>:this <- undef
	.loc	59 65 16                # /usr/lib/gcc/x86_64-linux-gnu/9/../../../../include/c++/9/bits/predefined_ops.h:65:16
	movq	%rsp, current_rsp
	leaq	asan_rtl_frame, %rsp
	callq	__asan_load8
	movq	current_rsp, %rsp
	movq	(%r13,%r14,8), %r15
	.loc	59 65 22 is_stmt 0      # /usr/lib/gcc/x86_64-linux-gnu/9/../../../../include/c++/9/bits/predefined_ops.h:65:22
	cmpq	24(%rbx), %r15          # 8-byte Folded Reload
.Ltmp351:
	.loc	20 133 7 is_stmt 1      # /usr/lib/gcc/x86_64-linux-gnu/9/../../../../include/c++/9/bits/stl_heap.h:133:7
	movq	%rsp, current_rsp
	leaq	specfuzz_rtl_frame, %rsp
	callq	specfuzz_chkp
	movq	current_rsp, %rsp
	jmp	.LBB5_69
	jb	.LBB5_42
	jmp	.LBB5_41
.Ltmp352:
.LBB5_69:                               # %land.rhs.i.i.i.i.i
                                        #   in Loop: Header=BB5_40 Depth=2
	jae	.LBB5_42
.LBB5_41:                               # %while.body.i.i.i.i.i
                                        #   in Loop: Header=BB5_40 Depth=2
.Ltmp353:
	#DEBUG_VALUE: __push_heap<__gnu_cxx::__normal_iterator<unsigned long *, std::vector<unsigned long, std::allocator<unsigned long> > >, long, unsigned long, __gnu_cxx::__ops::_Iter_less_val>:__holeIndex <- $r14
	#DEBUG_VALUE: __push_heap<__gnu_cxx::__normal_iterator<unsigned long *, std::vector<unsigned long, std::allocator<unsigned long> > >, long, unsigned long, __gnu_cxx::__ops::_Iter_less_val>:__parent <- [DW_OP_constu 1, DW_OP_minus, DW_OP_constu 2, DW_OP_div, DW_OP_stack_value] $r14
	#DEBUG_VALUE: operator+:__n <- $r12
	#DEBUG_VALUE: __adjust_heap<__gnu_cxx::__normal_iterator<unsigned long *, std::vector<unsigned long, std::allocator<unsigned long> > >, long, unsigned long, __gnu_cxx::__ops::_Iter_less_iter>:__holeIndex <- $r12
	#DEBUG_VALUE: __push_heap<__gnu_cxx::__normal_iterator<unsigned long *, std::vector<unsigned long, std::allocator<unsigned long> > >, long, unsigned long, __gnu_cxx::__ops::_Iter_less_val>:__first <- [DW_OP_deref] undef
	#DEBUG_VALUE: operator+:this <- undef
	#DEBUG_VALUE: operator+:this <- undef
	.loc	18 860 45               # /usr/lib/gcc/x86_64-linux-gnu/9/../../../../include/c++/9/bits/stl_iterator.h:860:45
	subq	$8, instruction_counter
	leaq	(,%r12,8), %rdi
	addq	%r13, %rdi
.Ltmp354:
	.loc	20 135 29               # /usr/lib/gcc/x86_64-linux-gnu/9/../../../../include/c++/9/bits/stl_heap.h:135:29
	movq	%rsp, current_rsp
	leaq	asan_rtl_frame, %rsp
	callq	__asan_store8
	movq	current_rsp, %rsp
	movq	%rsp, current_rsp
	movq	%r15, tmp_gpr1
	leaq	(%r13,%r12,8), %r15
	movq	checkpoint_sp, %rsp
	pushq	%r15
	pushq	(%r15)
	movq	%rsp, checkpoint_sp
	movq	tmp_gpr1, %r15
	movq	current_rsp, %rsp
	movq	%r15, (%r13,%r12,8)
.Ltmp355:
	.loc	20 133 26               # /usr/lib/gcc/x86_64-linux-gnu/9/../../../../include/c++/9/bits/stl_heap.h:133:26
	cmpq	$2, %r12
	movq	%r14, %r12
.Ltmp356:
	.loc	20 133 39 is_stmt 0     # /usr/lib/gcc/x86_64-linux-gnu/9/../../../../include/c++/9/bits/stl_heap.h:133:39
	movq	%rsp, current_rsp
	leaq	specfuzz_rtl_frame, %rsp
	callq	specfuzz_chkp
	movq	current_rsp, %rsp
	jmp	.LBB5_70
	jle	.LBB5_40
	jmp	.LBB5_43
.Ltmp357:
.LBB5_70:                               # %while.body.i.i.i.i.i
                                        #   in Loop: Header=BB5_40 Depth=2
	jg	.LBB5_40
	jmp	.LBB5_43
	.p2align	4, 0x90
.LBB5_42:                               #   in Loop: Header=BB5_29 Depth=1
	.loc	20 0 39                 # /usr/lib/gcc/x86_64-linux-gnu/9/../../../../include/c++/9/bits/stl_heap.h:0:39
	subq	$1, instruction_counter
	movq	%r12, %r14
.LBB5_43:                               # %_ZSt10__pop_heapIN9__gnu_cxx17__normal_iteratorIPmSt6vectorImSaImEEEENS0_5__ops15_Iter_less_iterEEvT_S9_S9_RT0_.exit.i.i
                                        #   in Loop: Header=BB5_29 Depth=1
.Ltmp358:
	#DEBUG_VALUE: __push_heap<__gnu_cxx::__normal_iterator<unsigned long *, std::vector<unsigned long, std::allocator<unsigned long> > >, long, unsigned long, __gnu_cxx::__ops::_Iter_less_val>:__holeIndex <- $r14
	#DEBUG_VALUE: __push_heap<__gnu_cxx::__normal_iterator<unsigned long *, std::vector<unsigned long, std::allocator<unsigned long> > >, long, unsigned long, __gnu_cxx::__ops::_Iter_less_val>:__first <- [DW_OP_deref] undef
	#DEBUG_VALUE: operator+:this <- undef
	#DEBUG_VALUE: operator+:__n <- $r14
	.loc	18 860 45 is_stmt 1     # /usr/lib/gcc/x86_64-linux-gnu/9/../../../../include/c++/9/bits/stl_iterator.h:860:45
	subq	$6, instruction_counter
	leaq	(,%r14,8), %rdi
	addq	%r13, %rdi
.Ltmp359:
	.loc	20 139 32               # /usr/lib/gcc/x86_64-linux-gnu/9/../../../../include/c++/9/bits/stl_heap.h:139:32
	movq	%rsp, current_rsp
	leaq	asan_rtl_frame, %rsp
	callq	__asan_store8
	movq	current_rsp, %rsp
	#DEBUG_VALUE: operator-<unsigned long *, std::vector<unsigned long, std::allocator<unsigned long> > >:__rhs <- undef
	#DEBUG_VALUE: operator-<unsigned long *, std::vector<unsigned long, std::allocator<unsigned long> > >:__lhs <- undef
	#DEBUG_VALUE: __sort_heap<__gnu_cxx::__normal_iterator<unsigned long *, std::vector<unsigned long, std::allocator<unsigned long> > >, __gnu_cxx::__ops::_Iter_less_iter>:__last <- [DW_OP_deref] undef
	#DEBUG_VALUE: __sort_heap<__gnu_cxx::__normal_iterator<unsigned long *, std::vector<unsigned long, std::allocator<unsigned long> > >, __gnu_cxx::__ops::_Iter_less_iter>:__first <- [DW_OP_deref] undef
	movq	24(%rbx), %rax          # 8-byte Reload
	movq	%rsp, current_rsp
	movq	%r15, tmp_gpr1
	leaq	(%r13,%r14,8), %r15
	movq	checkpoint_sp, %rsp
	pushq	%r15
	pushq	(%r15)
	movq	%rsp, checkpoint_sp
	movq	tmp_gpr1, %r15
	movq	current_rsp, %rsp
	movq	%rax, (%r13,%r14,8)
.Ltmp360:
	.loc	20 405 31               # /usr/lib/gcc/x86_64-linux-gnu/9/../../../../include/c++/9/bits/stl_heap.h:405:31
	cmpq	$8, 32(%rbx)            # 8-byte Folded Reload
	.loc	20 405 7 is_stmt 0      # /usr/lib/gcc/x86_64-linux-gnu/9/../../../../include/c++/9/bits/stl_heap.h:405:7
	movq	%rsp, current_rsp
	leaq	specfuzz_rtl_frame, %rsp
	callq	specfuzz_chkp
	movq	current_rsp, %rsp
	jmp	.LBB5_71
	jle	.LBB5_29
	jmp	.LBB5_44
.Ltmp361:
.LBB5_71:                               # %_ZSt10__pop_heapIN9__gnu_cxx17__normal_iteratorIPmSt6vectorImSaImEEEENS0_5__ops15_Iter_less_iterEEvT_S9_S9_RT0_.exit.i.i
                                        #   in Loop: Header=BB5_29 Depth=1
	jg	.LBB5_29
.Ltmp362:
.LBB5_44:                               # %while.end
	.loc	16 1956 5 is_stmt 1     # /usr/lib/gcc/x86_64-linux-gnu/9/../../../../include/c++/9/bits/stl_algo.h:1956:5
	subq	$4, instruction_counter
	movq	56(%rbx), %rax          # 8-byte Reload
	movq	%rsp, current_rsp
	movq	%r15, tmp_gpr1
	leaq	(%rax), %r15
	movq	checkpoint_sp, %rsp
	pushq	%r15
	pushq	(%r15)
	movq	%rsp, checkpoint_sp
	movq	tmp_gpr1, %r15
	movq	current_rsp, %rsp
	movq	$1172321806, (%rax)     # imm = 0x45E0360E
	movq	80(%rbx), %rcx          # 8-byte Reload
	testq	%rcx, %rcx
	movq	%rsp, current_rsp
	leaq	specfuzz_rtl_frame, %rsp
	callq	specfuzz_chkp
	movq	current_rsp, %rsp
	jmp	.LBB5_72
	jne	.LBB5_46
	jmp	.LBB5_45
.LBB5_72:                               # %while.end
	je	.LBB5_46
.LBB5_45:
	.loc	16 0 5 is_stmt 0        # /usr/lib/gcc/x86_64-linux-gnu/9/../../../../include/c++/9/bits/stl_algo.h:0:5
	subq	$6, instruction_counter
	movabsq	$-723401728380766731, %rax # imm = 0xF5F5F5F5F5F5F5F5
	.loc	16 1956 5               # /usr/lib/gcc/x86_64-linux-gnu/9/../../../../include/c++/9/bits/stl_algo.h:1956:5
	movq	48(%rbx), %rdx          # 8-byte Reload
	movq	%rsp, current_rsp
	movq	%r15, tmp_gpr1
	leaq	2147450880(%rdx), %r15
	movq	checkpoint_sp, %rsp
	pushq	%r15
	pushq	(%r15)
	movq	%rsp, checkpoint_sp
	movq	tmp_gpr1, %r15
	movq	current_rsp, %rsp
	movq	%rax, 2147450880(%rdx)
	movq	56(%rcx), %rax
	movq	%rsp, current_rsp
	movq	%r15, tmp_gpr1
	leaq	(%rax), %r15
	movq	checkpoint_sp, %rsp
	pushq	%r15
	pushq	(%r15)
	movq	%rsp, checkpoint_sp
	movq	tmp_gpr1, %r15
	movq	current_rsp, %rsp
	movb	$0, (%rax)
	movq	%rsp, current_rsp
	leaq	specfuzz_rtl_frame, %rsp
	callq	specfuzz_rlbk_if_done
	movq	current_rsp, %rsp
	jmp	.LBB5_47
.LBB5_46:
	subq	$2, instruction_counter
	movq	48(%rbx), %rax          # 8-byte Reload
	movq	%rsp, current_rsp
	movq	%r15, tmp_gpr1
	leaq	2147450880(%rax), %r15
	movq	checkpoint_sp, %rsp
	pushq	%r15
	pushq	(%r15)
	movq	%rsp, checkpoint_sp
	movq	tmp_gpr1, %r15
	movq	current_rsp, %rsp
	movq	$0, 2147450880(%rax)
.LBB5_47:
	subq	$8, instruction_counter
	leaq	-40(%rbp), %rsp
	popq	%rbx
	popq	%r12
	popq	%r13
	popq	%r14
	popq	%r15
	popq	%rbp
	.cfi_def_cfa %rsp, 8
	movq	%rdi, tmp_gpr1
	movq	(%rsp), %rdi
	movq	%rsp, current_rsp
	leaq	specfuzz_rtl_frame, %rsp
	callq	specfuzz_check_code_pointer
	movq	current_rsp, %rsp
	movq	tmp_gpr1, %rdi
	retq
.Ltmp363:
.Lfunc_end5:
	.size	_ZSt16__introsort_loopIN9__gnu_cxx17__normal_iteratorIPmSt6vectorImSaImEEEElNS0_5__ops15_Iter_less_iterEEvT_S9_T0_T1_, .Lfunc_end5-_ZSt16__introsort_loopIN9__gnu_cxx17__normal_iteratorIPmSt6vectorImSaImEEEElNS0_5__ops15_Iter_less_iterEEvT_S9_T0_T1_
	.cfi_endproc
                                        # -- End function
	.section	.text._ZSt22__final_insertion_sortIN9__gnu_cxx17__normal_iteratorIPmSt6vectorImSaImEEEENS0_5__ops15_Iter_less_iterEEvT_S9_T0_,"axG",@progbits,_ZSt22__final_insertion_sortIN9__gnu_cxx17__normal_iteratorIPmSt6vectorImSaImEEEENS0_5__ops15_Iter_less_iterEEvT_S9_T0_,comdat
	.weak	_ZSt22__final_insertion_sortIN9__gnu_cxx17__normal_iteratorIPmSt6vectorImSaImEEEENS0_5__ops15_Iter_less_iterEEvT_S9_T0_ # -- Begin function _ZSt22__final_insertion_sortIN9__gnu_cxx17__normal_iteratorIPmSt6vectorImSaImEEEENS0_5__ops15_Iter_less_iterEEvT_S9_T0_
	.p2align	4, 0x90
	.type	_ZSt22__final_insertion_sortIN9__gnu_cxx17__normal_iteratorIPmSt6vectorImSaImEEEENS0_5__ops15_Iter_less_iterEEvT_S9_T0_,@function
_ZSt22__final_insertion_sortIN9__gnu_cxx17__normal_iteratorIPmSt6vectorImSaImEEEENS0_5__ops15_Iter_less_iterEEvT_S9_T0_: # @_ZSt22__final_insertion_sortIN9__gnu_cxx17__normal_iteratorIPmSt6vectorImSaImEEEENS0_5__ops15_Iter_less_iterEEvT_S9_T0_
.Lfunc_begin6:
	.loc	16 1881 0 is_stmt 1     # /usr/lib/gcc/x86_64-linux-gnu/9/../../../../include/c++/9/bits/stl_algo.h:1881:0
	.cfi_startproc
# %bb.0:                                # %entry
	nopl	42(%rbx)
	subq	$13, instruction_counter
	movq	%rsp, current_rsp
	movq	%r15, tmp_gpr1
	leaq	-8(%rsp), %r15
	movq	checkpoint_sp, %rsp
	pushq	%r15
	pushq	(%r15)
	movq	%rsp, checkpoint_sp
	movq	tmp_gpr1, %r15
	movq	current_rsp, %rsp
	pushq	%rbp
	.cfi_def_cfa_offset 16
	movq	%rsp, current_rsp
	movq	%r15, tmp_gpr1
	leaq	-8(%rsp), %r15
	movq	checkpoint_sp, %rsp
	pushq	%r15
	pushq	(%r15)
	movq	%rsp, checkpoint_sp
	movq	tmp_gpr1, %r15
	movq	current_rsp, %rsp
	pushq	%r15
	.cfi_def_cfa_offset 24
	movq	%rsp, current_rsp
	movq	%r15, tmp_gpr1
	leaq	-8(%rsp), %r15
	movq	checkpoint_sp, %rsp
	pushq	%r15
	pushq	(%r15)
	movq	%rsp, checkpoint_sp
	movq	tmp_gpr1, %r15
	movq	current_rsp, %rsp
	pushq	%r14
	.cfi_def_cfa_offset 32
	movq	%rsp, current_rsp
	movq	%r15, tmp_gpr1
	leaq	-8(%rsp), %r15
	movq	checkpoint_sp, %rsp
	pushq	%r15
	pushq	(%r15)
	movq	%rsp, checkpoint_sp
	movq	tmp_gpr1, %r15
	movq	current_rsp, %rsp
	pushq	%r13
	.cfi_def_cfa_offset 40
	movq	%rsp, current_rsp
	movq	%r15, tmp_gpr1
	leaq	-8(%rsp), %r15
	movq	checkpoint_sp, %rsp
	pushq	%r15
	pushq	(%r15)
	movq	%rsp, checkpoint_sp
	movq	tmp_gpr1, %r15
	movq	current_rsp, %rsp
	pushq	%r12
	.cfi_def_cfa_offset 48
	movq	%rsp, current_rsp
	movq	%r15, tmp_gpr1
	leaq	-8(%rsp), %r15
	movq	checkpoint_sp, %rsp
	pushq	%r15
	pushq	(%r15)
	movq	%rsp, checkpoint_sp
	movq	tmp_gpr1, %r15
	movq	current_rsp, %rsp
	pushq	%rbx
	.cfi_def_cfa_offset 56
	subq	$24, %rsp
	.cfi_def_cfa_offset 80
	.cfi_offset %rbx, -56
	.cfi_offset %r12, -48
	.cfi_offset %r13, -40
	.cfi_offset %r14, -32
	.cfi_offset %r15, -24
	.cfi_offset %rbp, -16
.Ltmp364:
	#DEBUG_VALUE: move_backward<__gnu_cxx::__normal_iterator<unsigned long *, std::vector<unsigned long, std::allocator<unsigned long> > >, __gnu_cxx::__normal_iterator<unsigned long *, std::vector<unsigned long, std::allocator<unsigned long> > > >:__first <- $rdi
	#DEBUG_VALUE: __copy_move_backward_a2<true, __gnu_cxx::__normal_iterator<unsigned long *, std::vector<unsigned long, std::allocator<unsigned long> > >, __gnu_cxx::__normal_iterator<unsigned long *, std::vector<unsigned long, std::allocator<unsigned long> > > >:__first <- $rdi
	#DEBUG_VALUE: __copy_move_backward_a<true, unsigned long *, unsigned long *>:__first <- $rdi
	#DEBUG_VALUE: __copy_move_b<unsigned long>:__first <- $rdi
	#DEBUG_VALUE: move_backward<__gnu_cxx::__normal_iterator<unsigned long *, std::vector<unsigned long, std::allocator<unsigned long> > >, __gnu_cxx::__normal_iterator<unsigned long *, std::vector<unsigned long, std::allocator<unsigned long> > > >:__first <- $rdi
	#DEBUG_VALUE: __copy_move_backward_a2<true, __gnu_cxx::__normal_iterator<unsigned long *, std::vector<unsigned long, std::allocator<unsigned long> > >, __gnu_cxx::__normal_iterator<unsigned long *, std::vector<unsigned long, std::allocator<unsigned long> > > >:__first <- $rdi
	#DEBUG_VALUE: __copy_move_backward_a<true, unsigned long *, unsigned long *>:__first <- $rdi
	#DEBUG_VALUE: __copy_move_b<unsigned long>:__first <- $rdi
	#DEBUG_VALUE: __copy_move_b<unsigned long>:__result <- [DW_OP_plus_uconst 16, DW_OP_stack_value] $rdi
	#DEBUG_VALUE: __copy_move_backward_a<true, unsigned long *, unsigned long *>:__result <- [DW_OP_plus_uconst 16, DW_OP_stack_value] $rdi
	#DEBUG_VALUE: __copy_move_backward_a2<true, __gnu_cxx::__normal_iterator<unsigned long *, std::vector<unsigned long, std::allocator<unsigned long> > >, __gnu_cxx::__normal_iterator<unsigned long *, std::vector<unsigned long, std::allocator<unsigned long> > > >:__result <- [DW_OP_plus_uconst 16, DW_OP_stack_value] $rdi
	#DEBUG_VALUE: move_backward<__gnu_cxx::__normal_iterator<unsigned long *, std::vector<unsigned long, std::allocator<unsigned long> > >, __gnu_cxx::__normal_iterator<unsigned long *, std::vector<unsigned long, std::allocator<unsigned long> > > >:__result <- [DW_OP_plus_uconst 16, DW_OP_stack_value] $rdi
	movq	%rdi, %r12
.Ltmp365:
	#DEBUG_VALUE: operator-<unsigned long *, std::vector<unsigned long, std::allocator<unsigned long> > >:__rhs <- undef
	#DEBUG_VALUE: operator-<unsigned long *, std::vector<unsigned long, std::allocator<unsigned long> > >:__lhs <- undef
	#DEBUG_VALUE: __final_insertion_sort<__gnu_cxx::__normal_iterator<unsigned long *, std::vector<unsigned long, std::allocator<unsigned long> > >, __gnu_cxx::__ops::_Iter_less_iter>:__last <- [DW_OP_deref] undef
	#DEBUG_VALUE: __final_insertion_sort<__gnu_cxx::__normal_iterator<unsigned long *, std::vector<unsigned long, std::allocator<unsigned long> > >, __gnu_cxx::__ops::_Iter_less_iter>:__first <- [DW_OP_deref] undef
	#DEBUG_VALUE: move_backward<__gnu_cxx::__normal_iterator<unsigned long *, std::vector<unsigned long, std::allocator<unsigned long> > >, __gnu_cxx::__normal_iterator<unsigned long *, std::vector<unsigned long, std::allocator<unsigned long> > > >:__result <- [DW_OP_plus_uconst 16, DW_OP_stack_value] $r12
	#DEBUG_VALUE: __copy_move_backward_a2<true, __gnu_cxx::__normal_iterator<unsigned long *, std::vector<unsigned long, std::allocator<unsigned long> > >, __gnu_cxx::__normal_iterator<unsigned long *, std::vector<unsigned long, std::allocator<unsigned long> > > >:__result <- [DW_OP_plus_uconst 16, DW_OP_stack_value] $r12
	#DEBUG_VALUE: __copy_move_backward_a<true, unsigned long *, unsigned long *>:__result <- [DW_OP_plus_uconst 16, DW_OP_stack_value] $r12
	#DEBUG_VALUE: __copy_move_b<unsigned long>:__result <- [DW_OP_plus_uconst 16, DW_OP_stack_value] $r12
	#DEBUG_VALUE: __copy_move_b<unsigned long>:__first <- $r12
	#DEBUG_VALUE: __copy_move_backward_a<true, unsigned long *, unsigned long *>:__first <- $r12
	#DEBUG_VALUE: __copy_move_backward_a2<true, __gnu_cxx::__normal_iterator<unsigned long *, std::vector<unsigned long, std::allocator<unsigned long> > >, __gnu_cxx::__normal_iterator<unsigned long *, std::vector<unsigned long, std::allocator<unsigned long> > > >:__first <- $r12
	#DEBUG_VALUE: move_backward<__gnu_cxx::__normal_iterator<unsigned long *, std::vector<unsigned long, std::allocator<unsigned long> > >, __gnu_cxx::__normal_iterator<unsigned long *, std::vector<unsigned long, std::allocator<unsigned long> > > >:__first <- $r12
	#DEBUG_VALUE: __copy_move_b<unsigned long>:__first <- $r12
	#DEBUG_VALUE: __copy_move_backward_a<true, unsigned long *, unsigned long *>:__first <- $r12
	#DEBUG_VALUE: __copy_move_backward_a2<true, __gnu_cxx::__normal_iterator<unsigned long *, std::vector<unsigned long, std::allocator<unsigned long> > >, __gnu_cxx::__normal_iterator<unsigned long *, std::vector<unsigned long, std::allocator<unsigned long> > > >:__first <- $r12
	#DEBUG_VALUE: move_backward<__gnu_cxx::__normal_iterator<unsigned long *, std::vector<unsigned long, std::allocator<unsigned long> > >, __gnu_cxx::__normal_iterator<unsigned long *, std::vector<unsigned long, std::allocator<unsigned long> > > >:__first <- $r12
	.loc	18 992 27 prologue_end  # /usr/lib/gcc/x86_64-linux-gnu/9/../../../../include/c++/9/bits/stl_iterator.h:992:27
	movq	%rsi, %rax
	subq	%rdi, %rax
.Ltmp366:
	.loc	16 1882 28              # /usr/lib/gcc/x86_64-linux-gnu/9/../../../../include/c++/9/bits/stl_algo.h:1882:28
	cmpq	$129, %rax
	movq	%rsp, current_rsp
	movq	%r15, tmp_gpr1
	leaq	16(%rsp), %r15
	movq	checkpoint_sp, %rsp
	pushq	%r15
	pushq	(%r15)
	movq	%rsp, checkpoint_sp
	movq	tmp_gpr1, %r15
	movq	current_rsp, %rsp
	movq	%rsi, 16(%rsp)          # 8-byte Spill
.Ltmp367:
	.loc	16 1882 11 is_stmt 0    # /usr/lib/gcc/x86_64-linux-gnu/9/../../../../include/c++/9/bits/stl_algo.h:1882:11
	movq	%rsp, current_rsp
	leaq	specfuzz_rtl_frame, %rsp
	callq	specfuzz_chkp
	movq	current_rsp, %rsp
	jmp	.LBB6_102
	jge	.LBB6_21
	jmp	.LBB6_1
.Ltmp368:
.LBB6_102:                              # %entry
	jl	.LBB6_21
.LBB6_1:                                # %for.body.lr.ph.i35
.Ltmp369:
	#DEBUG_VALUE: move_backward<__gnu_cxx::__normal_iterator<unsigned long *, std::vector<unsigned long, std::allocator<unsigned long> > >, __gnu_cxx::__normal_iterator<unsigned long *, std::vector<unsigned long, std::allocator<unsigned long> > > >:__first <- $r12
	#DEBUG_VALUE: __copy_move_backward_a2<true, __gnu_cxx::__normal_iterator<unsigned long *, std::vector<unsigned long, std::allocator<unsigned long> > >, __gnu_cxx::__normal_iterator<unsigned long *, std::vector<unsigned long, std::allocator<unsigned long> > > >:__first <- $r12
	#DEBUG_VALUE: __copy_move_backward_a<true, unsigned long *, unsigned long *>:__first <- $r12
	#DEBUG_VALUE: __copy_move_b<unsigned long>:__first <- $r12
	#DEBUG_VALUE: __copy_move_b<unsigned long>:__result <- [DW_OP_plus_uconst 16, DW_OP_stack_value] $r12
	#DEBUG_VALUE: __copy_move_backward_a<true, unsigned long *, unsigned long *>:__result <- [DW_OP_plus_uconst 16, DW_OP_stack_value] $r12
	#DEBUG_VALUE: __copy_move_backward_a2<true, __gnu_cxx::__normal_iterator<unsigned long *, std::vector<unsigned long, std::allocator<unsigned long> > >, __gnu_cxx::__normal_iterator<unsigned long *, std::vector<unsigned long, std::allocator<unsigned long> > > >:__result <- [DW_OP_plus_uconst 16, DW_OP_stack_value] $r12
	#DEBUG_VALUE: move_backward<__gnu_cxx::__normal_iterator<unsigned long *, std::vector<unsigned long, std::allocator<unsigned long> > >, __gnu_cxx::__normal_iterator<unsigned long *, std::vector<unsigned long, std::allocator<unsigned long> > > >:__result <- [DW_OP_plus_uconst 16, DW_OP_stack_value] $r12
	#DEBUG_VALUE: __final_insertion_sort<__gnu_cxx::__normal_iterator<unsigned long *, std::vector<unsigned long, std::allocator<unsigned long> > >, __gnu_cxx::__ops::_Iter_less_iter>:__first <- [DW_OP_deref] undef
	#DEBUG_VALUE: operator+:this <- undef
	#DEBUG_VALUE: operator+:__n <- 16
	#DEBUG_VALUE: __insertion_sort<__gnu_cxx::__normal_iterator<unsigned long *, std::vector<unsigned long, std::allocator<unsigned long> > >, __gnu_cxx::__ops::_Iter_less_iter>:__first <- [DW_OP_deref] undef
	#DEBUG_VALUE: __insertion_sort<__gnu_cxx::__normal_iterator<unsigned long *, std::vector<unsigned long, std::allocator<unsigned long> > >, __gnu_cxx::__ops::_Iter_less_iter>:__last <- [DW_OP_deref] undef
	#DEBUG_VALUE: operator==<unsigned long *, std::vector<unsigned long, std::allocator<unsigned long> > >:__lhs <- undef
	#DEBUG_VALUE: operator==<unsigned long *, std::vector<unsigned long, std::allocator<unsigned long> > >:__rhs <- undef
	#DEBUG_VALUE: __i <- [DW_OP_deref] undef
	#DEBUG_VALUE: operator!=<unsigned long *, std::vector<unsigned long, std::allocator<unsigned long> > >:__lhs <- undef
	#DEBUG_VALUE: operator!=<unsigned long *, std::vector<unsigned long, std::allocator<unsigned long> > >:__rhs <- undef
	.loc	16 1844 7 is_stmt 1     # /usr/lib/gcc/x86_64-linux-gnu/9/../../../../include/c++/9/bits/stl_algo.h:1844:7
	subq	$8, instruction_counter
	leaq	8(%r12), %r13
.Ltmp370:
	#DEBUG_VALUE: operator()<__gnu_cxx::__normal_iterator<unsigned long *, std::vector<unsigned long, std::allocator<unsigned long> > >, __gnu_cxx::__normal_iterator<unsigned long *, std::vector<unsigned long, std::allocator<unsigned long> > > >:__it1 <- [DW_OP_deref] undef
	#DEBUG_VALUE: move_backward<__gnu_cxx::__normal_iterator<unsigned long *, std::vector<unsigned long, std::allocator<unsigned long> > >, __gnu_cxx::__normal_iterator<unsigned long *, std::vector<unsigned long, std::allocator<unsigned long> > > >:__last <- $r13
	#DEBUG_VALUE: __copy_move_backward_a2<true, __gnu_cxx::__normal_iterator<unsigned long *, std::vector<unsigned long, std::allocator<unsigned long> > >, __gnu_cxx::__normal_iterator<unsigned long *, std::vector<unsigned long, std::allocator<unsigned long> > > >:__last <- $r13
	#DEBUG_VALUE: __copy_move_backward_a<true, unsigned long *, unsigned long *>:__last <- $r13
	#DEBUG_VALUE: __copy_move_b<unsigned long>:__last <- $r13
	#DEBUG_VALUE: move_backward<__gnu_cxx::__normal_iterator<unsigned long *, std::vector<unsigned long, std::allocator<unsigned long> > >, __gnu_cxx::__normal_iterator<unsigned long *, std::vector<unsigned long, std::allocator<unsigned long> > > >:__result <- [DW_OP_plus_uconst 16, DW_OP_stack_value] $r13
	#DEBUG_VALUE: __copy_move_backward_a2<true, __gnu_cxx::__normal_iterator<unsigned long *, std::vector<unsigned long, std::allocator<unsigned long> > >, __gnu_cxx::__normal_iterator<unsigned long *, std::vector<unsigned long, std::allocator<unsigned long> > > >:__result <- [DW_OP_plus_uconst 16, DW_OP_stack_value] $r13
	#DEBUG_VALUE: __copy_move_backward_a<true, unsigned long *, unsigned long *>:__result <- [DW_OP_plus_uconst 16, DW_OP_stack_value] $r13
	#DEBUG_VALUE: __copy_move_b<unsigned long>:__result <- [DW_OP_plus_uconst 16, DW_OP_stack_value] $r13
	.loc	59 43 16                # /usr/lib/gcc/x86_64-linux-gnu/9/../../../../include/c++/9/bits/predefined_ops.h:43:16
	movq	%r13, %rdi
	movq	%rsp, current_rsp
	leaq	asan_rtl_frame, %rsp
	callq	__asan_load8
	movq	current_rsp, %rsp
	movq	8(%r12), %r15
.Ltmp371:
	#DEBUG_VALUE: operator()<__gnu_cxx::__normal_iterator<unsigned long *, std::vector<unsigned long, std::allocator<unsigned long> > >, __gnu_cxx::__normal_iterator<unsigned long *, std::vector<unsigned long, std::allocator<unsigned long> > > >:__it2 <- [DW_OP_deref] undef
	#DEBUG_VALUE: __val <- $r15
	#DEBUG_VALUE: __unguarded_linear_insert<__gnu_cxx::__normal_iterator<unsigned long *, std::vector<unsigned long, std::allocator<unsigned long> > >, __gnu_cxx::__ops::_Val_less_iter>:__val <- $r15
	.loc	59 43 25 is_stmt 0      # /usr/lib/gcc/x86_64-linux-gnu/9/../../../../include/c++/9/bits/predefined_ops.h:43:25
	movq	%r12, %rdi
	movq	%rsp, current_rsp
	leaq	asan_rtl_frame, %rsp
	callq	__asan_load8
	movq	current_rsp, %rsp
	movq	(%r12), %rbp
	.loc	59 43 23                # /usr/lib/gcc/x86_64-linux-gnu/9/../../../../include/c++/9/bits/predefined_ops.h:43:23
	cmpq	%rbp, %r15
.Ltmp372:
	.loc	16 1846 8 is_stmt 1     # /usr/lib/gcc/x86_64-linux-gnu/9/../../../../include/c++/9/bits/stl_algo.h:1846:8
	movq	%rsp, current_rsp
	leaq	specfuzz_rtl_frame, %rsp
	callq	specfuzz_chkp
	movq	current_rsp, %rsp
	jmp	.LBB6_103
	jb	.LBB6_3
	jmp	.LBB6_2
.Ltmp373:
.LBB6_103:                              # %for.body.lr.ph.i35
	jae	.LBB6_3
.LBB6_2:                                # %if.then9.i43
.Ltmp374:
	#DEBUG_VALUE: __val <- $r15
	#DEBUG_VALUE: __copy_move_b<unsigned long>:__result <- [DW_OP_plus_uconst 16, DW_OP_stack_value] $r13
	#DEBUG_VALUE: __copy_move_backward_a<true, unsigned long *, unsigned long *>:__result <- [DW_OP_plus_uconst 16, DW_OP_stack_value] $r13
	#DEBUG_VALUE: __copy_move_backward_a2<true, __gnu_cxx::__normal_iterator<unsigned long *, std::vector<unsigned long, std::allocator<unsigned long> > >, __gnu_cxx::__normal_iterator<unsigned long *, std::vector<unsigned long, std::allocator<unsigned long> > > >:__result <- [DW_OP_plus_uconst 16, DW_OP_stack_value] $r13
	#DEBUG_VALUE: move_backward<__gnu_cxx::__normal_iterator<unsigned long *, std::vector<unsigned long, std::allocator<unsigned long> > >, __gnu_cxx::__normal_iterator<unsigned long *, std::vector<unsigned long, std::allocator<unsigned long> > > >:__result <- [DW_OP_plus_uconst 16, DW_OP_stack_value] $r13
	#DEBUG_VALUE: __copy_move_b<unsigned long>:__last <- $r13
	#DEBUG_VALUE: __copy_move_backward_a<true, unsigned long *, unsigned long *>:__last <- $r13
	#DEBUG_VALUE: __copy_move_backward_a2<true, __gnu_cxx::__normal_iterator<unsigned long *, std::vector<unsigned long, std::allocator<unsigned long> > >, __gnu_cxx::__normal_iterator<unsigned long *, std::vector<unsigned long, std::allocator<unsigned long> > > >:__last <- $r13
	#DEBUG_VALUE: move_backward<__gnu_cxx::__normal_iterator<unsigned long *, std::vector<unsigned long, std::allocator<unsigned long> > >, __gnu_cxx::__normal_iterator<unsigned long *, std::vector<unsigned long, std::allocator<unsigned long> > > >:__last <- $r13
	#DEBUG_VALUE: move_backward<__gnu_cxx::__normal_iterator<unsigned long *, std::vector<unsigned long, std::allocator<unsigned long> > >, __gnu_cxx::__normal_iterator<unsigned long *, std::vector<unsigned long, std::allocator<unsigned long> > > >:__first <- $r12
	#DEBUG_VALUE: __copy_move_backward_a2<true, __gnu_cxx::__normal_iterator<unsigned long *, std::vector<unsigned long, std::allocator<unsigned long> > >, __gnu_cxx::__normal_iterator<unsigned long *, std::vector<unsigned long, std::allocator<unsigned long> > > >:__first <- $r12
	#DEBUG_VALUE: __copy_move_backward_a<true, unsigned long *, unsigned long *>:__first <- $r12
	#DEBUG_VALUE: __copy_move_b<unsigned long>:__first <- $r12
	#DEBUG_VALUE: __i <- [DW_OP_deref] undef
	#DEBUG_VALUE: operator+:this <- undef
	#DEBUG_VALUE: operator+:__n <- 1
	#DEBUG_VALUE: __copy_move_backward_a<true, unsigned long *, unsigned long *>:__simple <- 1
	#DEBUG_VALUE: __copy_move_b<unsigned long>:_Num <- [DW_OP_constu 3, DW_OP_shra, DW_OP_stack_value] 8
	.loc	54 588 6                # /usr/lib/gcc/x86_64-linux-gnu/9/../../../../include/c++/9/bits/stl_algobase.h:588:6
	subq	$5, instruction_counter
	movq	%r13, %rdi
	movq	%rsp, current_rsp
	leaq	asan_rtl_frame, %rsp
	callq	__asan_store8
	movq	current_rsp, %rsp
	movq	%rsp, current_rsp
	movq	%r15, tmp_gpr1
	leaq	(%r13), %r15
.Ltmp375:
	movq	checkpoint_sp, %rsp
	pushq	%r15
	pushq	(%r15)
	movq	%rsp, checkpoint_sp
	movq	tmp_gpr1, %r15
	movq	current_rsp, %rsp
	movq	%rbp, (%r13)
	#DEBUG_VALUE: __insertion_sort<__gnu_cxx::__normal_iterator<unsigned long *, std::vector<unsigned long, std::allocator<unsigned long> > >, __gnu_cxx::__ops::_Iter_less_iter>:__first <- [DW_OP_deref] undef
	movq	%r12, %rbx
	movq	%rsp, current_rsp
	leaq	specfuzz_rtl_frame, %rsp
	callq	specfuzz_rlbk_if_done
	movq	current_rsp, %rsp
	jmp	.LBB6_6
.Ltmp376:
.LBB6_21:                               # %if.else
	#DEBUG_VALUE: __insertion_sort<__gnu_cxx::__normal_iterator<unsigned long *, std::vector<unsigned long, std::allocator<unsigned long> > >, __gnu_cxx::__ops::_Iter_less_iter>:__first <- [DW_OP_deref] undef
	#DEBUG_VALUE: __insertion_sort<__gnu_cxx::__normal_iterator<unsigned long *, std::vector<unsigned long, std::allocator<unsigned long> > >, __gnu_cxx::__ops::_Iter_less_iter>:__last <- [DW_OP_deref] undef
	#DEBUG_VALUE: operator==<unsigned long *, std::vector<unsigned long, std::allocator<unsigned long> > >:__lhs <- undef
	#DEBUG_VALUE: operator==<unsigned long *, std::vector<unsigned long, std::allocator<unsigned long> > >:__rhs <- undef
	.loc	18 896 27               # /usr/lib/gcc/x86_64-linux-gnu/9/../../../../include/c++/9/bits/stl_iterator.h:896:27
	subq	$2, instruction_counter
	cmpq	%rsi, %r12
.Ltmp377:
	.loc	16 1842 11              # /usr/lib/gcc/x86_64-linux-gnu/9/../../../../include/c++/9/bits/stl_algo.h:1842:11
	movq	%rsp, current_rsp
	leaq	specfuzz_rtl_frame, %rsp
	callq	specfuzz_chkp
	movq	current_rsp, %rsp
	jmp	.LBB6_104
	jne	.LBB6_31
	jmp	.LBB6_22
.LBB6_104:                              # %if.else
	je	.LBB6_31
.LBB6_22:                               # %for.cond.preheader.i
	#DEBUG_VALUE: __insertion_sort<__gnu_cxx::__normal_iterator<unsigned long *, std::vector<unsigned long, std::allocator<unsigned long> > >, __gnu_cxx::__ops::_Iter_less_iter>:__last <- [DW_OP_deref] undef
.Ltmp378:
	#DEBUG_VALUE: __i <- [DW_OP_deref] undef
	#DEBUG_VALUE: operator!=<unsigned long *, std::vector<unsigned long, std::allocator<unsigned long> > >:__lhs <- undef
	#DEBUG_VALUE: operator!=<unsigned long *, std::vector<unsigned long, std::allocator<unsigned long> > >:__rhs <- undef
	.loc	16 0 0 is_stmt 0        # /usr/lib/gcc/x86_64-linux-gnu/9/../../../../include/c++/9/bits/stl_algo.h:0:0
	subq	$2, instruction_counter
	leaq	8(%r12), %rax
.Ltmp379:
	.loc	18 910 27 is_stmt 1     # /usr/lib/gcc/x86_64-linux-gnu/9/../../../../include/c++/9/bits/stl_iterator.h:910:27
	cmpq	%rsi, %rax
.Ltmp380:
	.loc	16 1844 7               # /usr/lib/gcc/x86_64-linux-gnu/9/../../../../include/c++/9/bits/stl_algo.h:1844:7
	movq	%rsp, current_rsp
	leaq	specfuzz_rtl_frame, %rsp
	callq	specfuzz_chkp
	movq	current_rsp, %rsp
	jmp	.LBB6_105
	jne	.LBB6_31
	jmp	.LBB6_23
.LBB6_105:                              # %for.cond.preheader.i
	je	.LBB6_31
.LBB6_23:                               # %for.body.lr.ph.i
	.loc	16 0 7 is_stmt 0        # /usr/lib/gcc/x86_64-linux-gnu/9/../../../../include/c++/9/bits/stl_algo.h:0:7
	subq	$1, instruction_counter
	movq	%r12, %r15
	.p2align	4, 0x90
.LBB6_24:                               # %for.body.i
                                        # =>This Loop Header: Depth=1
                                        #     Child Loop BB6_29 Depth 2
	subq	$8, instruction_counter
	movq	%r15, %r13
	movq	%rax, %r15
.Ltmp381:
	#DEBUG_VALUE: operator()<__gnu_cxx::__normal_iterator<unsigned long *, std::vector<unsigned long, std::allocator<unsigned long> > >, __gnu_cxx::__normal_iterator<unsigned long *, std::vector<unsigned long, std::allocator<unsigned long> > > >:__it1 <- [DW_OP_deref] undef
	#DEBUG_VALUE: move_backward<__gnu_cxx::__normal_iterator<unsigned long *, std::vector<unsigned long, std::allocator<unsigned long> > >, __gnu_cxx::__normal_iterator<unsigned long *, std::vector<unsigned long, std::allocator<unsigned long> > > >:__last <- $r15
	#DEBUG_VALUE: __copy_move_backward_a2<true, __gnu_cxx::__normal_iterator<unsigned long *, std::vector<unsigned long, std::allocator<unsigned long> > >, __gnu_cxx::__normal_iterator<unsigned long *, std::vector<unsigned long, std::allocator<unsigned long> > > >:__last <- $r15
	#DEBUG_VALUE: __copy_move_backward_a<true, unsigned long *, unsigned long *>:__last <- $r15
	#DEBUG_VALUE: __copy_move_b<unsigned long>:__last <- $r15
	.loc	59 43 16 is_stmt 1      # /usr/lib/gcc/x86_64-linux-gnu/9/../../../../include/c++/9/bits/predefined_ops.h:43:16
	movq	%rax, %rdi
	movq	%rsp, current_rsp
	leaq	asan_rtl_frame, %rsp
	callq	__asan_load8
	movq	current_rsp, %rsp
	movq	8(%r13), %r14
.Ltmp382:
	#DEBUG_VALUE: __val <- $r14
	#DEBUG_VALUE: operator()<__gnu_cxx::__normal_iterator<unsigned long *, std::vector<unsigned long, std::allocator<unsigned long> > >, __gnu_cxx::__normal_iterator<unsigned long *, std::vector<unsigned long, std::allocator<unsigned long> > > >:__it2 <- [DW_OP_deref] undef
	#DEBUG_VALUE: __unguarded_linear_insert<__gnu_cxx::__normal_iterator<unsigned long *, std::vector<unsigned long, std::allocator<unsigned long> > >, __gnu_cxx::__ops::_Val_less_iter>:__val <- $r14
	.loc	59 43 25 is_stmt 0      # /usr/lib/gcc/x86_64-linux-gnu/9/../../../../include/c++/9/bits/predefined_ops.h:43:25
	movq	%r12, %rdi
	movq	%rsp, current_rsp
	leaq	asan_rtl_frame, %rsp
	callq	__asan_load8
	movq	current_rsp, %rsp
	.loc	59 43 23                # /usr/lib/gcc/x86_64-linux-gnu/9/../../../../include/c++/9/bits/predefined_ops.h:43:23
	cmpq	(%r12), %r14
.Ltmp383:
	.loc	16 1846 8 is_stmt 1     # /usr/lib/gcc/x86_64-linux-gnu/9/../../../../include/c++/9/bits/stl_algo.h:1846:8
	movq	%rsp, current_rsp
	leaq	specfuzz_rtl_frame, %rsp
	callq	specfuzz_chkp
	movq	current_rsp, %rsp
	jmp	.LBB6_106
	jb	.LBB6_27
	jmp	.LBB6_25
.Ltmp384:
.LBB6_106:                              # %for.body.i
                                        #   in Loop: Header=BB6_24 Depth=1
	jae	.LBB6_27
.LBB6_25:                               # %if.then9.i
                                        #   in Loop: Header=BB6_24 Depth=1
.Ltmp385:
	#DEBUG_VALUE: __val <- $r14
	#DEBUG_VALUE: __copy_move_b<unsigned long>:__last <- $r15
	#DEBUG_VALUE: __copy_move_backward_a<true, unsigned long *, unsigned long *>:__last <- $r15
	#DEBUG_VALUE: __copy_move_backward_a2<true, __gnu_cxx::__normal_iterator<unsigned long *, std::vector<unsigned long, std::allocator<unsigned long> > >, __gnu_cxx::__normal_iterator<unsigned long *, std::vector<unsigned long, std::allocator<unsigned long> > > >:__last <- $r15
	#DEBUG_VALUE: move_backward<__gnu_cxx::__normal_iterator<unsigned long *, std::vector<unsigned long, std::allocator<unsigned long> > >, __gnu_cxx::__normal_iterator<unsigned long *, std::vector<unsigned long, std::allocator<unsigned long> > > >:__last <- $r15
	#DEBUG_VALUE: __i <- [DW_OP_deref] undef
	#DEBUG_VALUE: operator+:this <- undef
	#DEBUG_VALUE: operator+:__n <- 1
	#DEBUG_VALUE: __copy_move_backward_a<true, unsigned long *, unsigned long *>:__simple <- 1
	.loc	54 587 8                # /usr/lib/gcc/x86_64-linux-gnu/9/../../../../include/c++/9/bits/stl_algobase.h:587:8
	subq	$3, instruction_counter
	movq	%r15, %rdx
	movq	%r12, %rbp
	subq	%r12, %rdx
.Ltmp386:
	.loc	54 587 8 is_stmt 0      # /usr/lib/gcc/x86_64-linux-gnu/9/../../../../include/c++/9/bits/stl_algobase.h:587:8
	movq	%rsp, current_rsp
	leaq	specfuzz_rtl_frame, %rsp
	callq	specfuzz_chkp
	movq	current_rsp, %rsp
	jmp	.LBB6_107
	jne	.LBB6_30
	jmp	.LBB6_26
.Ltmp387:
.LBB6_107:                              # %if.then9.i
                                        #   in Loop: Header=BB6_24 Depth=1
	je	.LBB6_30
.Ltmp388:
.LBB6_26:                               # %if.then.i.i.i.i.i
                                        #   in Loop: Header=BB6_24 Depth=1
	#DEBUG_VALUE: __val <- $r14
	#DEBUG_VALUE: __copy_move_b<unsigned long>:__last <- $r15
	#DEBUG_VALUE: __copy_move_backward_a<true, unsigned long *, unsigned long *>:__last <- $r15
	#DEBUG_VALUE: __copy_move_backward_a2<true, __gnu_cxx::__normal_iterator<unsigned long *, std::vector<unsigned long, std::allocator<unsigned long> > >, __gnu_cxx::__normal_iterator<unsigned long *, std::vector<unsigned long, std::allocator<unsigned long> > > >:__last <- $r15
	#DEBUG_VALUE: move_backward<__gnu_cxx::__normal_iterator<unsigned long *, std::vector<unsigned long, std::allocator<unsigned long> > >, __gnu_cxx::__normal_iterator<unsigned long *, std::vector<unsigned long, std::allocator<unsigned long> > > >:__last <- $r15
	.loc	18 860 45 is_stmt 1     # /usr/lib/gcc/x86_64-linux-gnu/9/../../../../include/c++/9/bits/stl_iterator.h:860:45
	subq	$7, instruction_counter
	subq	%rdx, %r13
.Ltmp389:
	.loc	54 0 0 is_stmt 0        # /usr/lib/gcc/x86_64-linux-gnu/9/../../../../include/c++/9/bits/stl_algobase.h:0:0
	addq	$16, %r13
	.loc	54 588 6 is_stmt 1      # /usr/lib/gcc/x86_64-linux-gnu/9/../../../../include/c++/9/bits/stl_algobase.h:588:6
	movq	%r13, %rdi
	movq	%r12, %rsi
	movq	%rsp, current_rsp
	leaq	specfuzz_rtl_frame, %rsp
	callq	specfuzz_rlbk_external_call
	movq	current_rsp, %rsp
	addw	$1, disable_speculation
	callq	__asan_memmove
	subw	$1, disable_speculation
	movq	%r12, %rbp
	movq	%rsp, current_rsp
	leaq	specfuzz_rtl_frame, %rsp
	callq	specfuzz_rlbk_if_done
	movq	current_rsp, %rsp
	jmp	.LBB6_30
.Ltmp390:
	.p2align	4, 0x90
.LBB6_27:                               # %if.else.i
                                        #   in Loop: Header=BB6_24 Depth=1
	#DEBUG_VALUE: __unguarded_linear_insert<__gnu_cxx::__normal_iterator<unsigned long *, std::vector<unsigned long, std::allocator<unsigned long> > >, __gnu_cxx::__ops::_Val_less_iter>:__val <- $r14
	#DEBUG_VALUE: __unguarded_linear_insert<__gnu_cxx::__normal_iterator<unsigned long *, std::vector<unsigned long, std::allocator<unsigned long> > >, __gnu_cxx::__ops::_Val_less_iter>:__last <- [DW_OP_deref] undef
	#DEBUG_VALUE: __unguarded_linear_insert<__gnu_cxx::__normal_iterator<unsigned long *, std::vector<unsigned long, std::allocator<unsigned long> > >, __gnu_cxx::__ops::_Val_less_iter>:__next <- [DW_OP_deref] undef
	#DEBUG_VALUE: operator--:this <- undef
	#DEBUG_VALUE: operator()<unsigned long, __gnu_cxx::__normal_iterator<unsigned long *, std::vector<unsigned long, std::allocator<unsigned long> > > >:__it <- [DW_OP_deref] undef
	.loc	59 90 24                # /usr/lib/gcc/x86_64-linux-gnu/9/../../../../include/c++/9/bits/predefined_ops.h:90:24
	subq	$5, instruction_counter
	movq	%r13, %rdi
	movq	%rsp, current_rsp
	leaq	asan_rtl_frame, %rsp
	callq	__asan_load8
	movq	current_rsp, %rsp
	movq	(%r13), %rbx
	movq	%r15, %rbp
	.loc	59 90 22 is_stmt 0      # /usr/lib/gcc/x86_64-linux-gnu/9/../../../../include/c++/9/bits/predefined_ops.h:90:22
	cmpq	%rbx, %r14
.Ltmp391:
	.loc	16 1827 7 is_stmt 1     # /usr/lib/gcc/x86_64-linux-gnu/9/../../../../include/c++/9/bits/stl_algo.h:1827:7
	movq	%rsp, current_rsp
	leaq	specfuzz_rtl_frame, %rsp
	callq	specfuzz_chkp
	movq	current_rsp, %rsp
	jmp	.LBB6_108
	jb	.LBB6_30
	jmp	.LBB6_28
.Ltmp392:
.LBB6_108:                              # %if.else.i
                                        #   in Loop: Header=BB6_24 Depth=1
	jae	.LBB6_30
.LBB6_28:                               # %while.body.i.i.preheader
                                        #   in Loop: Header=BB6_24 Depth=1
	.loc	16 0 7 is_stmt 0        # /usr/lib/gcc/x86_64-linux-gnu/9/../../../../include/c++/9/bits/stl_algo.h:0:7
	subq	$1, instruction_counter
	movq	%r15, %rbp
	.p2align	4, 0x90
.LBB6_29:                               # %while.body.i.i
                                        #   Parent Loop BB6_24 Depth=1
                                        # =>  This Inner Loop Header: Depth=2
	#DEBUG_VALUE: __unguarded_linear_insert<__gnu_cxx::__normal_iterator<unsigned long *, std::vector<unsigned long, std::allocator<unsigned long> > >, __gnu_cxx::__ops::_Val_less_iter>:__last <- [DW_OP_deref] undef
	#DEBUG_VALUE: __unguarded_linear_insert<__gnu_cxx::__normal_iterator<unsigned long *, std::vector<unsigned long, std::allocator<unsigned long> > >, __gnu_cxx::__ops::_Val_less_iter>:__next <- [DW_OP_deref] undef
.Ltmp393:
	.loc	16 1829 12 is_stmt 1    # /usr/lib/gcc/x86_64-linux-gnu/9/../../../../include/c++/9/bits/stl_algo.h:1829:12
	subq	$8, instruction_counter
	movq	%rbp, %rdi
	movq	%rsp, current_rsp
	leaq	asan_rtl_frame, %rsp
	callq	__asan_store8
	movq	current_rsp, %rsp
	movq	%rsp, current_rsp
	movq	%r15, tmp_gpr1
	leaq	(%rbp), %r15
	movq	checkpoint_sp, %rsp
	pushq	%r15
	pushq	(%r15)
	movq	%rsp, checkpoint_sp
	movq	tmp_gpr1, %r15
	movq	current_rsp, %rsp
	movq	%rbx, (%rbp)
.Ltmp394:
	#DEBUG_VALUE: operator--:this <- undef
	#DEBUG_VALUE: operator()<unsigned long, __gnu_cxx::__normal_iterator<unsigned long *, std::vector<unsigned long, std::allocator<unsigned long> > > >:__it <- [DW_OP_deref] undef
	#DEBUG_VALUE: __unguarded_linear_insert<__gnu_cxx::__normal_iterator<unsigned long *, std::vector<unsigned long, std::allocator<unsigned long> > >, __gnu_cxx::__ops::_Val_less_iter>:__next <- [DW_OP_deref] undef
	.loc	59 90 24                # /usr/lib/gcc/x86_64-linux-gnu/9/../../../../include/c++/9/bits/predefined_ops.h:90:24
	leaq	-16(%rbp), %rdi
	movq	%rsp, current_rsp
	leaq	asan_rtl_frame, %rsp
	callq	__asan_load8
	movq	current_rsp, %rsp
	movq	-16(%rbp), %rbx
.Ltmp395:
	.loc	16 1827 7               # /usr/lib/gcc/x86_64-linux-gnu/9/../../../../include/c++/9/bits/stl_algo.h:1827:7
	addq	$-8, %rbp
.Ltmp396:
	.loc	59 90 22                # /usr/lib/gcc/x86_64-linux-gnu/9/../../../../include/c++/9/bits/predefined_ops.h:90:22
	cmpq	%rbx, %r14
.Ltmp397:
	.loc	16 1827 7               # /usr/lib/gcc/x86_64-linux-gnu/9/../../../../include/c++/9/bits/stl_algo.h:1827:7
	movq	%rsp, current_rsp
	leaq	specfuzz_rtl_frame, %rsp
	callq	specfuzz_chkp
	movq	current_rsp, %rsp
	jmp	.LBB6_109
	jae	.LBB6_29
	jmp	.LBB6_30
.LBB6_109:                              # %while.body.i.i
                                        #   in Loop: Header=BB6_29 Depth=2
	jb	.LBB6_29
.Ltmp398:
.LBB6_30:                               # %for.inc.i
                                        #   in Loop: Header=BB6_24 Depth=1
	.loc	16 0 0 is_stmt 0        # /usr/lib/gcc/x86_64-linux-gnu/9/../../../../include/c++/9/bits/stl_algo.h:0:0
	subq	$6, instruction_counter
	movq	%rbp, %rdi
	movq	%rsp, current_rsp
	leaq	asan_rtl_frame, %rsp
	callq	__asan_store8
	movq	current_rsp, %rsp
	#DEBUG_VALUE: __i <- [DW_OP_deref] undef
	movq	%rsp, current_rsp
	movq	%r15, tmp_gpr1
	leaq	(%rbp), %r15
	movq	checkpoint_sp, %rsp
	pushq	%r15
	pushq	(%r15)
	movq	%rsp, checkpoint_sp
	movq	tmp_gpr1, %r15
	movq	current_rsp, %rsp
	movq	%r14, (%rbp)
	#DEBUG_VALUE: operator!=<unsigned long *, std::vector<unsigned long, std::allocator<unsigned long> > >:__rhs <- undef
	#DEBUG_VALUE: operator!=<unsigned long *, std::vector<unsigned long, std::allocator<unsigned long> > >:__lhs <- undef
	#DEBUG_VALUE: __i <- [DW_OP_deref] undef
	#DEBUG_VALUE: __insertion_sort<__gnu_cxx::__normal_iterator<unsigned long *, std::vector<unsigned long, std::allocator<unsigned long> > >, __gnu_cxx::__ops::_Iter_less_iter>:__last <- [DW_OP_deref] undef
.Ltmp399:
	leaq	8(%r15), %rax
.Ltmp400:
	.loc	18 910 27 is_stmt 1     # /usr/lib/gcc/x86_64-linux-gnu/9/../../../../include/c++/9/bits/stl_iterator.h:910:27
	cmpq	16(%rsp), %rax          # 8-byte Folded Reload
.Ltmp401:
	.loc	16 1844 7               # /usr/lib/gcc/x86_64-linux-gnu/9/../../../../include/c++/9/bits/stl_algo.h:1844:7
	movq	%rsp, current_rsp
	leaq	specfuzz_rtl_frame, %rsp
	callq	specfuzz_chkp
	movq	current_rsp, %rsp
	jmp	.LBB6_110
	je	.LBB6_24
	jmp	.LBB6_31
.LBB6_110:                              # %for.inc.i
                                        #   in Loop: Header=BB6_24 Depth=1
	jne	.LBB6_24
	jmp	.LBB6_31
.Ltmp402:
.LBB6_3:                                # %if.else.i51
	#DEBUG_VALUE: __unguarded_linear_insert<__gnu_cxx::__normal_iterator<unsigned long *, std::vector<unsigned long, std::allocator<unsigned long> > >, __gnu_cxx::__ops::_Val_less_iter>:__val <- $r15
	#DEBUG_VALUE: __unguarded_linear_insert<__gnu_cxx::__normal_iterator<unsigned long *, std::vector<unsigned long, std::allocator<unsigned long> > >, __gnu_cxx::__ops::_Val_less_iter>:__last <- [DW_OP_deref] undef
	#DEBUG_VALUE: __unguarded_linear_insert<__gnu_cxx::__normal_iterator<unsigned long *, std::vector<unsigned long, std::allocator<unsigned long> > >, __gnu_cxx::__ops::_Val_less_iter>:__next <- [DW_OP_deref] undef
	#DEBUG_VALUE: operator--:this <- undef
	#DEBUG_VALUE: operator()<unsigned long, __gnu_cxx::__normal_iterator<unsigned long *, std::vector<unsigned long, std::allocator<unsigned long> > > >:__it <- [DW_OP_deref] undef
	.loc	16 0 7 is_stmt 0        # /usr/lib/gcc/x86_64-linux-gnu/9/../../../../include/c++/9/bits/stl_algo.h:0:7
	movq	%r13, %rbx
.Ltmp403:
	.loc	16 1827 7 is_stmt 1     # /usr/lib/gcc/x86_64-linux-gnu/9/../../../../include/c++/9/bits/stl_algo.h:1827:7
	movq	%rsp, current_rsp
	leaq	specfuzz_rtl_frame, %rsp
	callq	specfuzz_chkp
	movq	current_rsp, %rsp
	jmp	.LBB6_111
	jb	.LBB6_6
	jmp	.LBB6_4
.Ltmp404:
.LBB6_111:                              # %if.else.i51
	jae	.LBB6_6
.LBB6_4:                                # %while.body.i.i56.preheader
	.loc	16 0 7 is_stmt 0        # /usr/lib/gcc/x86_64-linux-gnu/9/../../../../include/c++/9/bits/stl_algo.h:0:7
	subq	$1, instruction_counter
	movq	%r13, %rbx
	.p2align	4, 0x90
.LBB6_5:                                # %while.body.i.i56
                                        # =>This Inner Loop Header: Depth=1
	#DEBUG_VALUE: __unguarded_linear_insert<__gnu_cxx::__normal_iterator<unsigned long *, std::vector<unsigned long, std::allocator<unsigned long> > >, __gnu_cxx::__ops::_Val_less_iter>:__last <- [DW_OP_deref] undef
	#DEBUG_VALUE: __unguarded_linear_insert<__gnu_cxx::__normal_iterator<unsigned long *, std::vector<unsigned long, std::allocator<unsigned long> > >, __gnu_cxx::__ops::_Val_less_iter>:__next <- [DW_OP_deref] undef
.Ltmp405:
	.loc	16 1829 12 is_stmt 1    # /usr/lib/gcc/x86_64-linux-gnu/9/../../../../include/c++/9/bits/stl_algo.h:1829:12
	subq	$8, instruction_counter
	movq	%rbx, %rdi
	movq	%rsp, current_rsp
	leaq	asan_rtl_frame, %rsp
	callq	__asan_store8
	movq	current_rsp, %rsp
	movq	%rsp, current_rsp
	movq	%r15, tmp_gpr1
	leaq	(%rbx), %r15
	movq	checkpoint_sp, %rsp
	pushq	%r15
	pushq	(%r15)
	movq	%rsp, checkpoint_sp
	movq	tmp_gpr1, %r15
	movq	current_rsp, %rsp
	movq	%rbp, (%rbx)
.Ltmp406:
	#DEBUG_VALUE: operator--:this <- undef
	#DEBUG_VALUE: operator()<unsigned long, __gnu_cxx::__normal_iterator<unsigned long *, std::vector<unsigned long, std::allocator<unsigned long> > > >:__it <- [DW_OP_deref] undef
	#DEBUG_VALUE: __unguarded_linear_insert<__gnu_cxx::__normal_iterator<unsigned long *, std::vector<unsigned long, std::allocator<unsigned long> > >, __gnu_cxx::__ops::_Val_less_iter>:__next <- [DW_OP_deref] undef
	.loc	59 90 24                # /usr/lib/gcc/x86_64-linux-gnu/9/../../../../include/c++/9/bits/predefined_ops.h:90:24
	leaq	-16(%rbx), %rdi
	movq	%rsp, current_rsp
	leaq	asan_rtl_frame, %rsp
	callq	__asan_load8
	movq	current_rsp, %rsp
	movq	-16(%rbx), %rbp
.Ltmp407:
	.loc	16 1827 7               # /usr/lib/gcc/x86_64-linux-gnu/9/../../../../include/c++/9/bits/stl_algo.h:1827:7
	addq	$-8, %rbx
.Ltmp408:
	.loc	59 90 22                # /usr/lib/gcc/x86_64-linux-gnu/9/../../../../include/c++/9/bits/predefined_ops.h:90:22
	cmpq	%rbp, %r15
.Ltmp409:
	.loc	16 1827 7               # /usr/lib/gcc/x86_64-linux-gnu/9/../../../../include/c++/9/bits/stl_algo.h:1827:7
	movq	%rsp, current_rsp
	leaq	specfuzz_rtl_frame, %rsp
	callq	specfuzz_chkp
	movq	current_rsp, %rsp
	jmp	.LBB6_112
	jae	.LBB6_5
	jmp	.LBB6_6
.LBB6_112:                              # %while.body.i.i56
                                        #   in Loop: Header=BB6_5 Depth=1
	jb	.LBB6_5
.Ltmp410:
.LBB6_6:                                # %for.inc.i61
	.loc	16 0 0 is_stmt 0        # /usr/lib/gcc/x86_64-linux-gnu/9/../../../../include/c++/9/bits/stl_algo.h:0:0
	subq	$12, instruction_counter
	movq	%rbx, %rdi
	movq	%rsp, current_rsp
	leaq	asan_rtl_frame, %rsp
	callq	__asan_store8
	movq	current_rsp, %rsp
	#DEBUG_VALUE: operator!=<unsigned long *, std::vector<unsigned long, std::allocator<unsigned long> > >:__rhs <- undef
	#DEBUG_VALUE: operator!=<unsigned long *, std::vector<unsigned long, std::allocator<unsigned long> > >:__lhs <- undef
	#DEBUG_VALUE: __i <- [DW_OP_deref] undef
	#DEBUG_VALUE: __insertion_sort<__gnu_cxx::__normal_iterator<unsigned long *, std::vector<unsigned long, std::allocator<unsigned long> > >, __gnu_cxx::__ops::_Iter_less_iter>:__last <- [DW_OP_deref] undef
	movq	%rsp, current_rsp
	movq	%r15, tmp_gpr1
	leaq	(%rbx), %r15
	movq	checkpoint_sp, %rsp
	pushq	%r15
	pushq	(%r15)
	movq	%rsp, checkpoint_sp
	movq	tmp_gpr1, %r15
	movq	current_rsp, %rsp
	movq	%r15, (%rbx)
.Ltmp411:
	.loc	59 42 29 is_stmt 1      # /usr/lib/gcc/x86_64-linux-gnu/9/../../../../include/c++/9/bits/predefined_ops.h:42:29
	leaq	16(%r12), %r15
	#DEBUG_VALUE: operator()<__gnu_cxx::__normal_iterator<unsigned long *, std::vector<unsigned long, std::allocator<unsigned long> > >, __gnu_cxx::__normal_iterator<unsigned long *, std::vector<unsigned long, std::allocator<unsigned long> > > >:__it1 <- [DW_OP_deref] undef
.Ltmp412:
	#DEBUG_VALUE: move_backward<__gnu_cxx::__normal_iterator<unsigned long *, std::vector<unsigned long, std::allocator<unsigned long> > >, __gnu_cxx::__normal_iterator<unsigned long *, std::vector<unsigned long, std::allocator<unsigned long> > > >:__last <- $r15
	#DEBUG_VALUE: __copy_move_backward_a2<true, __gnu_cxx::__normal_iterator<unsigned long *, std::vector<unsigned long, std::allocator<unsigned long> > >, __gnu_cxx::__normal_iterator<unsigned long *, std::vector<unsigned long, std::allocator<unsigned long> > > >:__last <- $r15
	#DEBUG_VALUE: __copy_move_backward_a<true, unsigned long *, unsigned long *>:__last <- $r15
	#DEBUG_VALUE: __copy_move_b<unsigned long>:__last <- $r15
	#DEBUG_VALUE: move_backward<__gnu_cxx::__normal_iterator<unsigned long *, std::vector<unsigned long, std::allocator<unsigned long> > >, __gnu_cxx::__normal_iterator<unsigned long *, std::vector<unsigned long, std::allocator<unsigned long> > > >:__result <- [DW_OP_plus_uconst 16, DW_OP_stack_value] $r15
	#DEBUG_VALUE: __copy_move_backward_a2<true, __gnu_cxx::__normal_iterator<unsigned long *, std::vector<unsigned long, std::allocator<unsigned long> > >, __gnu_cxx::__normal_iterator<unsigned long *, std::vector<unsigned long, std::allocator<unsigned long> > > >:__result <- [DW_OP_plus_uconst 16, DW_OP_stack_value] $r15
	#DEBUG_VALUE: __copy_move_backward_a<true, unsigned long *, unsigned long *>:__result <- [DW_OP_plus_uconst 16, DW_OP_stack_value] $r15
	#DEBUG_VALUE: __copy_move_b<unsigned long>:__result <- [DW_OP_plus_uconst 16, DW_OP_stack_value] $r15
	.loc	59 43 16                # /usr/lib/gcc/x86_64-linux-gnu/9/../../../../include/c++/9/bits/predefined_ops.h:43:16
	movq	%r15, %rdi
	movq	%rsp, current_rsp
	leaq	asan_rtl_frame, %rsp
	callq	__asan_load8
	movq	current_rsp, %rsp
	movq	16(%r12), %r14
	#DEBUG_VALUE: operator()<__gnu_cxx::__normal_iterator<unsigned long *, std::vector<unsigned long, std::allocator<unsigned long> > >, __gnu_cxx::__normal_iterator<unsigned long *, std::vector<unsigned long, std::allocator<unsigned long> > > >:__it2 <- [DW_OP_deref] undef
.Ltmp413:
	#DEBUG_VALUE: __val <- $r14
	#DEBUG_VALUE: __unguarded_linear_insert<__gnu_cxx::__normal_iterator<unsigned long *, std::vector<unsigned long, std::allocator<unsigned long> > >, __gnu_cxx::__ops::_Val_less_iter>:__val <- $r14
	.loc	59 43 25 is_stmt 0      # /usr/lib/gcc/x86_64-linux-gnu/9/../../../../include/c++/9/bits/predefined_ops.h:43:25
	movq	%r12, %rdi
	movq	%rsp, current_rsp
	leaq	asan_rtl_frame, %rsp
	callq	__asan_load8
	movq	current_rsp, %rsp
	.loc	59 43 23                # /usr/lib/gcc/x86_64-linux-gnu/9/../../../../include/c++/9/bits/predefined_ops.h:43:23
	cmpq	(%r12), %r14
.Ltmp414:
	.loc	16 1846 8 is_stmt 1     # /usr/lib/gcc/x86_64-linux-gnu/9/../../../../include/c++/9/bits/stl_algo.h:1846:8
	movq	%rsp, current_rsp
	movq	%r15, tmp_gpr1
	leaq	8(%rsp), %r15
.Ltmp415:
	movq	checkpoint_sp, %rsp
	pushq	%r15
	pushq	(%r15)
	movq	%rsp, checkpoint_sp
	movq	tmp_gpr1, %r15
	movq	current_rsp, %rsp
	movq	%r13, 8(%rsp)           # 8-byte Spill
	movq	%rsp, current_rsp
	leaq	specfuzz_rtl_frame, %rsp
	callq	specfuzz_chkp
	movq	current_rsp, %rsp
	jmp	.LBB6_113
	jb	.LBB6_7
	jmp	.LBB6_35
.Ltmp416:
.LBB6_113:                              # %for.inc.i61
	jae	.LBB6_7
.LBB6_35:                               # %if.then9.i43.1
.Ltmp417:
	#DEBUG_VALUE: __val <- $r14
	#DEBUG_VALUE: __copy_move_b<unsigned long>:__result <- [DW_OP_plus_uconst 16, DW_OP_stack_value] $r15
	#DEBUG_VALUE: __copy_move_backward_a<true, unsigned long *, unsigned long *>:__result <- [DW_OP_plus_uconst 16, DW_OP_stack_value] $r15
	#DEBUG_VALUE: __copy_move_backward_a2<true, __gnu_cxx::__normal_iterator<unsigned long *, std::vector<unsigned long, std::allocator<unsigned long> > >, __gnu_cxx::__normal_iterator<unsigned long *, std::vector<unsigned long, std::allocator<unsigned long> > > >:__result <- [DW_OP_plus_uconst 16, DW_OP_stack_value] $r15
	#DEBUG_VALUE: move_backward<__gnu_cxx::__normal_iterator<unsigned long *, std::vector<unsigned long, std::allocator<unsigned long> > >, __gnu_cxx::__normal_iterator<unsigned long *, std::vector<unsigned long, std::allocator<unsigned long> > > >:__result <- [DW_OP_plus_uconst 16, DW_OP_stack_value] $r15
	#DEBUG_VALUE: __copy_move_b<unsigned long>:__last <- $r15
	#DEBUG_VALUE: __copy_move_backward_a<true, unsigned long *, unsigned long *>:__last <- $r15
	#DEBUG_VALUE: __copy_move_backward_a2<true, __gnu_cxx::__normal_iterator<unsigned long *, std::vector<unsigned long, std::allocator<unsigned long> > >, __gnu_cxx::__normal_iterator<unsigned long *, std::vector<unsigned long, std::allocator<unsigned long> > > >:__last <- $r15
