	.text
	.file	"utils.cc"
	.file	1 "/usr/lib/gcc/x86_64-linux-gnu/9/../../../../include/x86_64-linux-gnu/c++/9/bits/atomic_word.h"
	.file	2 "/usr/lib/gcc/x86_64-linux-gnu/9/../../../../include/c++/9/bits/ios_base.h"
	.file	3 "/usr/lib/gcc/x86_64-linux-gnu/9/../../../../include/c++/9/iostream"
	.file	4 "/usr/local/google/home/zbrid/sanitizer/safeside/demos/spectre_v1/utils.cc"
	.file	5 "/usr/local/google/home/zbrid/sanitizer/llvm-install/llvm-7.0.1/build/lib/clang/7.0.1/include/stddef.h"
	.file	6 "/usr/local/google/home/zbrid/sanitizer/safeside/demos/spectre_v1/./hardware_constants.h"
	.file	7 "/usr/include/x86_64-linux-gnu/bits/cpu-set.h"
	.file	8 "/usr/include/stdint.h"
	.file	9 "/usr/lib/gcc/x86_64-linux-gnu/9/../../../../include/x86_64-linux-gnu/c++/9/bits/c++config.h"
	.file	10 "/usr/lib/gcc/x86_64-linux-gnu/9/../../../../include/c++/9/bits/postypes.h"
	.file	11 "/usr/local/google/home/zbrid/sanitizer/llvm-install/llvm-7.0.1/build/lib/clang/7.0.1/include/__stddef_max_align_t.h"
	.file	12 "/usr/lib/gcc/x86_64-linux-gnu/9/../../../../include/c++/9/cstddef"
	.file	13 "/usr/include/x86_64-linux-gnu/bits/types/__mbstate_t.h"
	.file	14 "/usr/include/x86_64-linux-gnu/bits/types/mbstate_t.h"
	.file	15 "/usr/lib/gcc/x86_64-linux-gnu/9/../../../../include/c++/9/cwchar"
	.file	16 "/usr/include/x86_64-linux-gnu/bits/types/wint_t.h"
	.file	17 "/usr/include/wchar.h"
	.file	18 "/usr/include/x86_64-linux-gnu/bits/types/struct_FILE.h"
	.file	19 "/usr/include/x86_64-linux-gnu/bits/types.h"
	.file	20 "/usr/include/x86_64-linux-gnu/bits/types/__FILE.h"
	.file	21 "/usr/lib/gcc/x86_64-linux-gnu/9/../../../../include/c++/9/bits/exception_ptr.h"
	.file	22 "/usr/lib/gcc/x86_64-linux-gnu/9/../../../../include/c++/9/debug/debug.h"
	.file	23 "/usr/include/x86_64-linux-gnu/bits/stdint-intn.h"
	.file	24 "/usr/lib/gcc/x86_64-linux-gnu/9/../../../../include/c++/9/cstdint"
	.file	25 "/usr/include/x86_64-linux-gnu/bits/stdint-uintn.h"
	.file	26 "/usr/lib/gcc/x86_64-linux-gnu/9/../../../../include/c++/9/clocale"
	.file	27 "/usr/include/locale.h"
	.file	28 "/usr/include/ctype.h"
	.file	29 "/usr/lib/gcc/x86_64-linux-gnu/9/../../../../include/c++/9/cctype"
	.file	30 "/usr/lib/gcc/x86_64-linux-gnu/9/../../../../include/c++/9/ext/new_allocator.h"
	.file	31 "/usr/include/stdlib.h"
	.file	32 "/usr/lib/gcc/x86_64-linux-gnu/9/../../../../include/c++/9/bits/std_abs.h"
	.file	33 "/usr/lib/gcc/x86_64-linux-gnu/9/../../../../include/c++/9/cstdlib"
	.file	34 "/usr/include/x86_64-linux-gnu/bits/stdlib-float.h"
	.file	35 "/usr/include/x86_64-linux-gnu/bits/stdlib-bsearch.h"
	.file	36 "/usr/include/x86_64-linux-gnu/bits/types/FILE.h"
	.file	37 "/usr/lib/gcc/x86_64-linux-gnu/9/../../../../include/c++/9/cstdio"
	.file	38 "/usr/include/x86_64-linux-gnu/bits/types/__fpos_t.h"
	.file	39 "/usr/include/stdio.h"
	.file	40 "/usr/include/x86_64-linux-gnu/bits/stdio.h"
	.file	41 "/usr/include/wctype.h"
	.file	42 "/usr/lib/gcc/x86_64-linux-gnu/9/../../../../include/c++/9/cwctype"
	.file	43 "/usr/include/x86_64-linux-gnu/bits/wctype-wchar.h"
	.file	44 "/usr/include/string.h"
	.file	45 "/usr/lib/gcc/x86_64-linux-gnu/9/../../../../include/c++/9/cstring"
	.file	46 "/usr/lib/gcc/x86_64-linux-gnu/9/../../../../include/c++/9/stdlib.h"
	.globl	_Z18FlushFromDataCachePKvS0_ # -- Begin function _Z18FlushFromDataCachePKvS0_
	.p2align	4, 0x90
	.type	_Z18FlushFromDataCachePKvS0_,@function
_Z18FlushFromDataCachePKvS0_:           # @_Z18FlushFromDataCachePKvS0_
.Lfunc_begin0:
	.loc	4 39 0                  # utils.cc:39:0
	.cfi_startproc
# %bb.0:                                # %entry
	#DEBUG_VALUE: StartOfNextCacheLine:next_n <- $rdi
	#DEBUG_VALUE: FlushFromDataCache:begin <- $rdi
	.loc	4 40 16 prologue_end    # utils.cc:40:16
	nopl	42(%rbx)
	subq	$2, instruction_counter
	cmpq	%rsi, %rdi
.Ltmp0:
	.loc	4 40 3 is_stmt 0        # utils.cc:40:3
	movq	%rsp, current_rsp
	leaq	specfuzz_rtl_frame, %rsp
	callq	specfuzz_chkp
	movq	current_rsp, %rsp
	jmp	.LBB0_4
	jb	.LBB0_3
	jmp	.LBB0_1
.Ltmp1:
.LBB0_4:                                # %entry
	jae	.LBB0_3
	.p2align	4, 0x90
.LBB0_1:                                # %for.body
                                        # =>This Inner Loop Header: Depth=1
.Ltmp2:
	#DEBUG_VALUE: FlushFromDataCache:begin <- $rdi
	#DEBUG_VALUE: StartOfNextCacheLine:next_n <- $rdi
	#DEBUG_VALUE: FlushFromDataCache:begin <- $rdi
	#DEBUG_VALUE: FlushDataCacheLineNoBarrier:address <- $rdi
	.file	47 "/usr/local/google/home/zbrid/sanitizer/safeside/demos/spectre_v1/./instr_x86.h"
	.loc	47 32 3 is_stmt 1       # ./instr_x86.h:32:3
	subq	$4, instruction_counter
	movq	%rsp, current_rsp
	movq	%r15, tmp_gpr1
	leaq	(%rdi), %r15
	movq	checkpoint_sp, %rsp
	pushq	%r15
	pushq	(%r15)
	movq	%rsp, checkpoint_sp
	movq	tmp_gpr1, %r15
	movq	current_rsp, %rsp
	clflush	(%rdi)
.Ltmp3:
	#DEBUG_VALUE: StartOfNextCacheLine:addr_n <- $rdi
	#DEBUG_VALUE: StartOfNextCacheLine:addr <- $rdi
	.loc	4 33 25                 # utils.cc:33:25
	addq	$64, %rdi
.Ltmp4:
	.loc	4 33 44 is_stmt 0       # utils.cc:33:44
	andq	$-64, %rdi
.Ltmp5:
	#DEBUG_VALUE: StartOfNextCacheLine:next_n <- $rdi
	#DEBUG_VALUE: FlushFromDataCache:begin <- $rdi
	.loc	4 40 16 is_stmt 1       # utils.cc:40:16
	cmpq	%rsi, %rdi
.Ltmp6:
	.loc	4 40 3 is_stmt 0        # utils.cc:40:3
	movq	%rsp, current_rsp
	leaq	specfuzz_rtl_frame, %rsp
	callq	specfuzz_chkp
	movq	current_rsp, %rsp
	jmp	.LBB0_5
	jae	.LBB0_1
	jmp	.LBB0_3
.Ltmp7:
.LBB0_5:                                # %for.body
                                        #   in Loop: Header=BB0_1 Depth=1
	jb	.LBB0_1
.Ltmp8:
.LBB0_3:                                # %for.end
	#DEBUG_VALUE: FlushFromDataCache:begin <- $rdi
	.loc	47 27 3 is_stmt 1       # ./instr_x86.h:27:3
	subq	$3, instruction_counter
	mfence
	.loc	47 28 3                 # ./instr_x86.h:28:3
	movq	%rsp, current_rsp
	leaq	specfuzz_rtl_frame, %rsp
	callq	specfuzz_rlbk_serializing
	movq	current_rsp, %rsp
	lfence
.Ltmp9:
	.loc	4 44 1                  # utils.cc:44:1
	movq	%rdi, tmp_gpr1
	movq	(%rsp), %rdi
.Ltmp10:
	movq	%rsp, current_rsp
	leaq	specfuzz_rtl_frame, %rsp
	callq	specfuzz_check_code_pointer
	movq	current_rsp, %rsp
	movq	tmp_gpr1, %rdi
	retq
.Ltmp11:
.Lfunc_end0:
	.size	_Z18FlushFromDataCachePKvS0_, .Lfunc_end0-_Z18FlushFromDataCachePKvS0_
	.cfi_endproc
                                        # -- End function
	.globl	_Z23ExtendSpeculationWindowv # -- Begin function _Z23ExtendSpeculationWindowv
	.p2align	4, 0x90
	.type	_Z23ExtendSpeculationWindowv,@function
_Z23ExtendSpeculationWindowv:           # @_Z23ExtendSpeculationWindowv
.Lfunc_begin1:
	.loc	4 49 0                  # utils.cc:49:0
	.cfi_startproc
# %bb.0:                                # %entry
	nopl	42(%rbx)
	subq	$2, instruction_counter
	movl	$_ZZ23ExtendSpeculationWindowvE6buffer+4096, %eax
.Ltmp12:
	#DEBUG_VALUE: FlushFromDataCache:begin <- $rax
	#DEBUG_VALUE: ExtendSpeculationWindow:read_offset <- $rax
	movl	$_ZZ23ExtendSpeculationWindowvE6buffer+4097, %ecx
.Ltmp13:
	.p2align	4, 0x90
.LBB1_1:                                # %for.body.i
                                        # =>This Inner Loop Header: Depth=1
	#DEBUG_VALUE: ExtendSpeculationWindow:read_offset <- $rax
	#DEBUG_VALUE: FlushFromDataCache:begin <- $rax
	.loc	47 32 3 prologue_end    # ./instr_x86.h:32:3
	subq	$4, instruction_counter
	movq	%rsp, current_rsp
	movq	%r15, tmp_gpr1
	leaq	(%rax), %r15
	movq	checkpoint_sp, %rsp
	pushq	%r15
	pushq	(%r15)
	movq	%rsp, checkpoint_sp
	movq	tmp_gpr1, %r15
	movq	current_rsp, %rsp
	clflush	(%rax)
.Ltmp14:
	#DEBUG_VALUE: StartOfNextCacheLine:addr_n <- $rax
	#DEBUG_VALUE: FlushDataCacheLineNoBarrier:address <- $rax
	#DEBUG_VALUE: StartOfNextCacheLine:addr <- $rax
	#DEBUG_VALUE: FlushFromDataCache:begin <- $rax
	.loc	4 33 25                 # utils.cc:33:25
	addq	$64, %rax
.Ltmp15:
	.loc	4 33 44 is_stmt 0       # utils.cc:33:44
	andq	$-64, %rax
.Ltmp16:
	#DEBUG_VALUE: FlushFromDataCache:end <- $rcx
	#DEBUG_VALUE: StartOfNextCacheLine:next_n <- $rax
	#DEBUG_VALUE: FlushFromDataCache:begin <- $rax
	.loc	4 40 16 is_stmt 1       # utils.cc:40:16
	cmpq	%rcx, %rax
.Ltmp17:
	.loc	4 40 3 is_stmt 0        # utils.cc:40:3
	movq	%rsp, current_rsp
	leaq	specfuzz_rtl_frame, %rsp
	callq	specfuzz_chkp
	movq	current_rsp, %rsp
	jmp	.LBB1_3
	jae	.LBB1_1
	jmp	.LBB1_2
.Ltmp18:
.LBB1_3:                                # %for.body.i
                                        #   in Loop: Header=BB1_1 Depth=1
	jb	.LBB1_1
.Ltmp19:
.LBB1_2:                                # %_Z18FlushFromDataCachePKvS0_.exit
	#DEBUG_VALUE: FlushFromDataCache:end <- $rcx
	#DEBUG_VALUE: FlushFromDataCache:begin <- $rax
	.loc	47 27 3 is_stmt 1       # ./instr_x86.h:27:3
	subq	$4, instruction_counter
	mfence
	.loc	47 28 3                 # ./instr_x86.h:28:3
	movq	%rsp, current_rsp
	leaq	specfuzz_rtl_frame, %rsp
	callq	specfuzz_rlbk_serializing
	movq	current_rsp, %rsp
	lfence
.Ltmp20:
	.file	48 "/usr/local/google/home/zbrid/sanitizer/safeside/demos/spectre_v1/./utils.h"
	.loc	48 21 9                 # ./utils.h:21:9
	movb	_ZZ23ExtendSpeculationWindowvE6buffer+4096(%rip), %al
.Ltmp21:
	.loc	4 60 1                  # utils.cc:60:1
	movq	%rdi, tmp_gpr1
	movq	(%rsp), %rdi
	movq	%rsp, current_rsp
	leaq	specfuzz_rtl_frame, %rsp
	callq	specfuzz_check_code_pointer
	movq	current_rsp, %rsp
	movq	tmp_gpr1, %rdi
	retq
.Ltmp22:
.Lfunc_end1:
	.size	_Z23ExtendSpeculationWindowv, .Lfunc_end1-_Z23ExtendSpeculationWindowv
	.cfi_endproc
                                        # -- End function
	.globl	_Z17PinToTheFirstCorev  # -- Begin function _Z17PinToTheFirstCorev
	.p2align	4, 0x90
	.type	_Z17PinToTheFirstCorev,@function
_Z17PinToTheFirstCorev:                 # @_Z17PinToTheFirstCorev
.Lfunc_begin2:
	.loc	4 63 0                  # utils.cc:63:0
	.cfi_startproc
# %bb.0:                                # %entry
	nopl	42(%rbx)
	subq	$11, instruction_counter
	movq	%rsp, current_rsp
	movq	%r15, tmp_gpr1
	leaq	-8(%rsp), %r15
	movq	checkpoint_sp, %rsp
	pushq	%r15
	pushq	(%r15)
	movq	%rsp, checkpoint_sp
	movq	tmp_gpr1, %r15
	movq	current_rsp, %rsp
	pushq	%rbp
	.cfi_def_cfa_offset 16
	.cfi_offset %rbp, -16
	movq	%rsp, %rbp
	.cfi_def_cfa_register %rbp
.Ltmp23:
	.loc	4 63 0 prologue_end     # utils.cc:63:0
	movq	%rsp, current_rsp
	movq	%r15, tmp_gpr1
	leaq	-8(%rsp), %r15
	movq	checkpoint_sp, %rsp
	pushq	%r15
	pushq	(%r15)
	movq	%rsp, checkpoint_sp
	movq	tmp_gpr1, %r15
	movq	current_rsp, %rsp
	pushq	%r15
	movq	%rsp, current_rsp
	movq	%r15, tmp_gpr1
	leaq	-8(%rsp), %r15
	movq	checkpoint_sp, %rsp
	pushq	%r15
	pushq	(%r15)
	movq	%rsp, checkpoint_sp
	movq	tmp_gpr1, %r15
	movq	current_rsp, %rsp
	pushq	%r14
	movq	%rsp, current_rsp
	movq	%r15, tmp_gpr1
	leaq	-8(%rsp), %r15
	movq	checkpoint_sp, %rsp
	pushq	%r15
	pushq	(%r15)
	movq	%rsp, checkpoint_sp
	movq	tmp_gpr1, %r15
	movq	current_rsp, %rsp
	pushq	%r13
	movq	%rsp, current_rsp
	movq	%r15, tmp_gpr1
	leaq	-8(%rsp), %r15
	movq	checkpoint_sp, %rsp
	pushq	%r15
	pushq	(%r15)
	movq	%rsp, checkpoint_sp
	movq	tmp_gpr1, %r15
	movq	current_rsp, %rsp
	pushq	%r12
	movq	%rsp, current_rsp
	movq	%r15, tmp_gpr1
	leaq	-8(%rsp), %r15
	movq	checkpoint_sp, %rsp
	pushq	%r15
	pushq	(%r15)
	movq	%rsp, checkpoint_sp
	movq	tmp_gpr1, %r15
	movq	current_rsp, %rsp
	pushq	%rbx
	andq	$-32, %rsp
	subq	$64, %rsp
	movq	%rsp, %rbx
	.cfi_offset %rbx, -56
	.cfi_offset %r12, -48
	.cfi_offset %r13, -40
	.cfi_offset %r14, -32
	.cfi_offset %r15, -24
	cmpl	$0, __asan_option_detect_stack_use_after_return(%rip)
	movq	%rsp, current_rsp
	leaq	specfuzz_rtl_frame, %rsp
	callq	specfuzz_chkp
	movq	current_rsp, %rsp
	jmp	.LBB2_11
	jne	.LBB2_1
	jmp	.LBB2_2
.LBB2_11:                               # %entry
	.loc	4 0 0 is_stmt 0         # utils.cc:0:0
	je	.LBB2_1
.LBB2_2:
	.loc	4 63 0                  # utils.cc:63:0
	subq	$5, instruction_counter
	movl	$192, %edi
	movq	%rsp, current_rsp
	leaq	specfuzz_rtl_frame, %rsp
	callq	specfuzz_rlbk_external_call
	movq	current_rsp, %rsp
	addw	$1, disable_speculation
	callq	__asan_stack_malloc_2
	subw	$1, disable_speculation
	movq	%rax, %r14
	movq	%r14, %r12
	testq	%r14, %r14
	movq	%rsp, current_rsp
	leaq	specfuzz_rtl_frame, %rsp
	callq	specfuzz_chkp
	movq	current_rsp, %rsp
	jmp	.LBB2_12
	je	.LBB2_5
	jmp	.LBB2_4
.LBB2_12:
	.loc	4 0 0                   # utils.cc:0:0
	jne	.LBB2_5
.LBB2_4:
	.loc	4 63 0                  # utils.cc:63:0
	subq	$4, instruction_counter
	movq	%rsp, %r12
	addq	$-192, %r12
	andq	$-32, %r12
	movq	%r12, %rsp
.LBB2_5:
	.loc	4 0 0                   # utils.cc:0:0
	subq	$13, instruction_counter
	movabsq	$-506381209866536712, %rcx # imm = 0xF8F8F8F8F8F8F8F8
	.loc	4 63 0                  # utils.cc:63:0
	movq	%rsp, current_rsp
	movq	%r15, tmp_gpr1
	leaq	24(%rbx), %r15
	movq	checkpoint_sp, %rsp
	pushq	%r15
	pushq	(%r15)
	movq	%rsp, checkpoint_sp
	movq	tmp_gpr1, %r15
	movq	current_rsp, %rsp
	movq	%r12, 24(%rbx)
	leaq	32(%r12), %r15
.Ltmp24:
	#DEBUG_VALUE: PinToTheFirstCore:set <- [DW_OP_deref] $r15
	movq	%rsp, current_rsp
	movq	%r15, tmp_gpr1
	leaq	(%r12), %r15
.Ltmp25:
	movq	checkpoint_sp, %rsp
	pushq	%r15
	pushq	(%r15)
	movq	%rsp, checkpoint_sp
	movq	tmp_gpr1, %r15
	movq	current_rsp, %rsp
	movq	$1102416563, (%r12)     # imm = 0x41B58AB3
	movq	%rsp, current_rsp
	movq	%r15, tmp_gpr1
	leaq	8(%r12), %r15
	movq	checkpoint_sp, %rsp
	pushq	%r15
	pushq	(%r15)
	movq	%rsp, checkpoint_sp
	movq	tmp_gpr1, %r15
	movq	current_rsp, %rsp
	movq	$.L___asan_gen_, 8(%r12)
	movq	%rsp, current_rsp
	movq	%r15, tmp_gpr1
	leaq	16(%r12), %r15
	movq	checkpoint_sp, %rsp
	pushq	%r15
	pushq	(%r15)
	movq	%rsp, checkpoint_sp
	movq	tmp_gpr1, %r15
	movq	current_rsp, %rsp
	movq	$_Z17PinToTheFirstCorev, 16(%r12)
	movq	%r12, %r13
	shrq	$3, %r13
	leaq	-117901063(%rcx), %rax
	movq	%rsp, current_rsp
	movq	%r15, tmp_gpr1
	leaq	2147450880(%r13), %r15
	movq	checkpoint_sp, %rsp
	pushq	%r15
	pushq	(%r15)
	movq	%rsp, checkpoint_sp
	movq	tmp_gpr1, %r15
	movq	current_rsp, %rsp
	movq	%rax, 2147450880(%r13)
	movq	%rsp, current_rsp
	movq	%r15, tmp_gpr1
	leaq	2147450888(%r13), %r15
	movq	checkpoint_sp, %rsp
	pushq	%r15
	pushq	(%r15)
	movq	%rsp, checkpoint_sp
	movq	tmp_gpr1, %r15
	movq	current_rsp, %rsp
	movq	%rcx, 2147450888(%r13)
	movabsq	$-868082073972705032, %rax # imm = 0xF3F3F3F3F8F8F8F8
	movq	%rsp, current_rsp
	movq	%r15, tmp_gpr1
	leaq	2147450896(%r13), %r15
	movq	checkpoint_sp, %rsp
	pushq	%r15
	pushq	(%r15)
	movq	%rsp, checkpoint_sp
	movq	tmp_gpr1, %r15
	movq	current_rsp, %rsp
	movq	%rax, 2147450896(%r13)
	.loc	4 64 3 is_stmt 1        # utils.cc:64:3
	movq	%rsp, current_rsp
	movq	%r15, tmp_gpr1
	leaq	2147450884(%r13), %r15
	movq	checkpoint_sp, %rsp
	pushq	%r15
	pushq	(%r15)
	movq	%rsp, checkpoint_sp
	movq	tmp_gpr1, %r15
	movq	current_rsp, %rsp
	movq	$0, 2147450884(%r13)
	movq	%rsp, current_rsp
	movq	%r15, tmp_gpr1
	leaq	2147450892(%r13), %r15
	movq	checkpoint_sp, %rsp
	pushq	%r15
	pushq	(%r15)
	movq	%rsp, checkpoint_sp
	movq	tmp_gpr1, %r15
	movq	current_rsp, %rsp
	movq	$0, 2147450892(%r13)
	movq	%rsp, current_rsp
	leaq	specfuzz_rtl_frame, %rsp
	callq	specfuzz_rlbk_if_done
	movq	current_rsp, %rsp
	subq	$17, instruction_counter
	leaq	40(%r12), %rdi
	.loc	4 65 3                  # utils.cc:65:3
	xorl	%esi, %esi
	movl	$120, %edx
	movq	%rsp, current_rsp
	leaq	specfuzz_rtl_frame, %rsp
	callq	specfuzz_rlbk_external_call
	movq	current_rsp, %rsp
	addw	$1, disable_speculation
	callq	__asan_memset
	subw	$1, disable_speculation
.Ltmp26:
	#DEBUG_VALUE: __cpu <- 0
	.loc	4 66 3                  # utils.cc:66:3
	movq	%r15, %rdi
	movq	%rsp, current_rsp
	leaq	asan_rtl_frame, %rsp
	callq	__asan_store8
	movq	current_rsp, %rsp
	movq	%rsp, current_rsp
	movq	%r15, tmp_gpr1
	leaq	32(%r12), %r15
	movq	checkpoint_sp, %rsp
	pushq	%r15
	pushq	(%r15)
	movq	%rsp, checkpoint_sp
	movq	tmp_gpr1, %r15
	movq	current_rsp, %rsp
	movq	$1, 32(%r12)
.Ltmp27:
	.loc	4 67 31                 # utils.cc:67:31
	movq	%rsp, current_rsp
	leaq	specfuzz_rtl_frame, %rsp
	callq	specfuzz_rlbk_external_call
	movq	current_rsp, %rsp
	addw	$1, disable_speculation
	callq	getpid
	subw	$1, disable_speculation
	.loc	4 67 13 is_stmt 0       # utils.cc:67:13
	movl	$128, %esi
	movl	%eax, %edi
	movq	%r15, %rdx
	movq	%rsp, current_rsp
	leaq	specfuzz_rtl_frame, %rsp
	callq	specfuzz_rlbk_external_call
	movq	current_rsp, %rsp
	addw	$1, disable_speculation
	callq	sched_setaffinity
	subw	$1, disable_speculation
.Ltmp28:
	#DEBUG_VALUE: PinToTheFirstCore:res <- $eax
	.loc	4 68 11 is_stmt 1       # utils.cc:68:11
	testl	%eax, %eax
.Ltmp29:
	.loc	4 68 7 is_stmt 0        # utils.cc:68:7
	jne	.LBB2_10
.Ltmp30:
# %bb.6:                                # %if.end
	#DEBUG_VALUE: PinToTheFirstCore:res <- $eax
	#DEBUG_VALUE: PinToTheFirstCore:set <- [DW_OP_deref] $r15
	.loc	4 0 7                   # utils.cc:0:7
	subq	$5, instruction_counter
	movabsq	$-506381209866536712, %rax # imm = 0xF8F8F8F8F8F8F8F8
.Ltmp31:
	.loc	4 72 1 is_stmt 1        # utils.cc:72:1
	movq	%rsp, current_rsp
	movq	%r15, tmp_gpr1
	leaq	2147450884(%r13), %r15
.Ltmp32:
	movq	checkpoint_sp, %rsp
	pushq	%r15
	pushq	(%r15)
	movq	%rsp, checkpoint_sp
	movq	tmp_gpr1, %r15
	movq	current_rsp, %rsp
	movq	%rax, 2147450884(%r13)
	movq	%rsp, current_rsp
	movq	%r15, tmp_gpr1
	leaq	2147450892(%r13), %r15
	movq	checkpoint_sp, %rsp
	pushq	%r15
	pushq	(%r15)
	movq	%rsp, checkpoint_sp
	movq	tmp_gpr1, %r15
	movq	current_rsp, %rsp
	movq	%rax, 2147450892(%r13)
	movq	%rsp, current_rsp
	movq	%r15, tmp_gpr1
	leaq	(%r12), %r15
	movq	checkpoint_sp, %rsp
	pushq	%r15
	pushq	(%r15)
	movq	%rsp, checkpoint_sp
	movq	tmp_gpr1, %r15
	movq	current_rsp, %rsp
	movq	$1172321806, (%r12)     # imm = 0x45E0360E
	testq	%r14, %r14
	movq	%rsp, current_rsp
	leaq	specfuzz_rtl_frame, %rsp
	callq	specfuzz_chkp
	movq	current_rsp, %rsp
	jmp	.LBB2_13
	jne	.LBB2_8
	jmp	.LBB2_7
.LBB2_13:                               # %if.end
	je	.LBB2_8
.LBB2_7:
.Ltmp33:
	#DEBUG_VALUE: PinToTheFirstCore:set <- [DW_OP_deref] $r15
	.loc	4 0 1 is_stmt 0         # utils.cc:0:1
	subq	$8, instruction_counter
	movabsq	$-723401728380766731, %rax # imm = 0xF5F5F5F5F5F5F5F5
	.loc	4 72 1                  # utils.cc:72:1
	movq	%rsp, current_rsp
	movq	%r15, tmp_gpr1
	leaq	2147450880(%r13), %r15
.Ltmp34:
	movq	checkpoint_sp, %rsp
	pushq	%r15
	pushq	(%r15)
	movq	%rsp, checkpoint_sp
	movq	tmp_gpr1, %r15
	movq	current_rsp, %rsp
	movq	%rax, 2147450880(%r13)
	movq	%rsp, current_rsp
	movq	%r15, tmp_gpr1
	leaq	2147450888(%r13), %r15
	movq	checkpoint_sp, %rsp
	pushq	%r15
	pushq	(%r15)
	movq	%rsp, checkpoint_sp
	movq	tmp_gpr1, %r15
	movq	current_rsp, %rsp
	movq	%rax, 2147450888(%r13)
	movq	%rsp, current_rsp
	movq	%r15, tmp_gpr1
	leaq	2147450896(%r13), %r15
	movq	checkpoint_sp, %rsp
	pushq	%r15
	pushq	(%r15)
	movq	%rsp, checkpoint_sp
	movq	tmp_gpr1, %r15
	movq	current_rsp, %rsp
	movq	%rax, 2147450896(%r13)
	movq	%rsp, current_rsp
	movq	%r15, tmp_gpr1
	leaq	2147450904(%r13), %r15
	movq	checkpoint_sp, %rsp
	pushq	%r15
	pushq	(%r15)
	movq	%rsp, checkpoint_sp
	movq	tmp_gpr1, %r15
	movq	current_rsp, %rsp
	movq	%rax, 2147450904(%r13)
	movq	248(%r14), %rax
	movq	%rsp, current_rsp
	movq	%r15, tmp_gpr1
	leaq	(%rax), %r15
	movq	checkpoint_sp, %rsp
	pushq	%r15
	pushq	(%r15)
	movq	%rsp, checkpoint_sp
	movq	tmp_gpr1, %r15
	movq	current_rsp, %rsp
	movb	$0, (%rax)
	movq	%rsp, current_rsp
	leaq	specfuzz_rtl_frame, %rsp
	callq	specfuzz_rlbk_if_done
	movq	current_rsp, %rsp
	jmp	.LBB2_9
.LBB2_1:
	.loc	4 0 1                   # utils.cc:0:1
	subq	$4, instruction_counter
	xorl	%r14d, %r14d
	.loc	4 63 0 is_stmt 1        # utils.cc:63:0
	movq	%r14, %r12
	testq	%r14, %r14
	movq	%rsp, current_rsp
	leaq	specfuzz_rtl_frame, %rsp
	callq	specfuzz_chkp
	movq	current_rsp, %rsp
	jmp	.LBB2_14
	je	.LBB2_5
	jmp	.LBB2_4
.LBB2_14:
	.loc	4 0 0 is_stmt 0         # utils.cc:0:0
	jne	.LBB2_5
	jmp	.LBB2_4
.LBB2_8:
.Ltmp35:
	#DEBUG_VALUE: PinToTheFirstCore:set <- [DW_OP_deref] $r15
	.loc	4 72 1 is_stmt 1        # utils.cc:72:1
	subq	$3, instruction_counter
	xorps	%xmm0, %xmm0
	movq	%rsp, current_rsp
	movq	%r15, tmp_gpr1
	leaq	2147450880(%r13), %r15
.Ltmp36:
	movq	checkpoint_sp, %rsp
	pushq	%r15
	pushq	(%r15)
	leaq	8(%r15), %r15
	pushq	%r15
	pushq	(%r15)
	movq	%rsp, checkpoint_sp
	movq	tmp_gpr1, %r15
	movq	current_rsp, %rsp
	movups	%xmm0, 2147450880(%r13)
	movq	%rsp, current_rsp
	movq	%r15, tmp_gpr1
	leaq	2147450896(%r13), %r15
	movq	checkpoint_sp, %rsp
	pushq	%r15
	pushq	(%r15)
	movq	%rsp, checkpoint_sp
	movq	tmp_gpr1, %r15
	movq	current_rsp, %rsp
	movq	$0, 2147450896(%r13)
.LBB2_9:
.Ltmp37:
	#DEBUG_VALUE: PinToTheFirstCore:set <- [DW_OP_deref] $r15
	subq	$8, instruction_counter
	leaq	-40(%rbp), %rsp
	popq	%rbx
	popq	%r12
	popq	%r13
	popq	%r14
	popq	%r15
.Ltmp38:
	popq	%rbp
	.cfi_def_cfa %rsp, 8
	movq	%rdi, tmp_gpr1
	movq	(%rsp), %rdi
	movq	%rsp, current_rsp
	leaq	specfuzz_rtl_frame, %rsp
	callq	specfuzz_check_code_pointer
	movq	current_rsp, %rsp
	movq	tmp_gpr1, %rdi
	retq
.LBB2_10:                               # %if.then
	.cfi_def_cfa %rbp, 16
.Ltmp39:
	#DEBUG_VALUE: PinToTheFirstCore:res <- $eax
	#DEBUG_VALUE: PinToTheFirstCore:set <- [DW_OP_deref] $r15
	.loc	4 69 15                 # utils.cc:69:15
	subq	$8, instruction_counter
	movl	$_ZSt4cout, %edi
	movl	$.str, %esi
	movq	%rsp, current_rsp
	leaq	specfuzz_rtl_frame, %rsp
	callq	specfuzz_rlbk_external_call
	movq	current_rsp, %rsp
	addw	$1, disable_speculation
	callq	_ZStlsISt11char_traitsIcEERSt13basic_ostreamIcT_ES5_PKc
.Ltmp40:
	subw	$1, disable_speculation
.Ltmp41:
	#DEBUG_VALUE: operator<<:this <- $rax
	.file	49 "/usr/lib/gcc/x86_64-linux-gnu/9/../../../../include/c++/9/ostream"
	.loc	49 113 9                # /usr/lib/gcc/x86_64-linux-gnu/9/../../../../include/c++/9/ostream:113:9
	movq	%rax, %rdi
	movq	%rsp, current_rsp
	leaq	specfuzz_rtl_frame, %rsp
	callq	specfuzz_rlbk_external_call
	movq	current_rsp, %rsp
	addw	$1, disable_speculation
	callq	_ZSt4endlIcSt11char_traitsIcEERSt13basic_ostreamIT_T0_ES6_
.Ltmp42:
	subw	$1, disable_speculation
.Ltmp43:
	.loc	4 70 5                  # utils.cc:70:5
	movq	%rsp, current_rsp
	leaq	specfuzz_rtl_frame, %rsp
	callq	specfuzz_rlbk_external_call
	movq	current_rsp, %rsp
	addw	$1, disable_speculation
	callq	__asan_handle_no_return
	subw	$1, disable_speculation
	movl	$1, %edi
	movq	%rsp, current_rsp
	leaq	specfuzz_rtl_frame, %rsp
	callq	specfuzz_rlbk_external_call
	movq	current_rsp, %rsp
	addw	$1, disable_speculation
	callq	exit
	subw	$1, disable_speculation
.Ltmp44:
.Lfunc_end2:
	.size	_Z17PinToTheFirstCorev, .Lfunc_end2-_Z17PinToTheFirstCorev
	.cfi_endproc
                                        # -- End function
	.section	.text.startup,"ax",@progbits
	.p2align	4, 0x90         # -- Begin function _GLOBAL__sub_I_utils.cc
	.type	_GLOBAL__sub_I_utils.cc,@function
_GLOBAL__sub_I_utils.cc:                # @_GLOBAL__sub_I_utils.cc
.Lfunc_begin3:
	.loc	4 0 0                   # utils.cc:0:0
	.cfi_startproc
# %bb.0:                                # %entry
	nopl	42(%rbx)
	subq	$12, instruction_counter
	movq	%rsp, current_rsp
	movq	%r15, tmp_gpr1
	leaq	-8(%rsp), %r15
	movq	checkpoint_sp, %rsp
	pushq	%r15
	pushq	(%r15)
	movq	%rsp, checkpoint_sp
	movq	tmp_gpr1, %r15
	movq	current_rsp, %rsp
	pushq	%rax
	.cfi_def_cfa_offset 16
.Ltmp45:
	.loc	3 74 25 prologue_end    # /usr/lib/gcc/x86_64-linux-gnu/9/../../../../include/c++/9/iostream:74:25
	movl	$.L___asan_gen_.1, %edi
	movq	%rsp, current_rsp
	leaq	asan_rtl_frame, %rsp
	callq	__asan_before_dynamic_init
	movq	current_rsp, %rsp
	movl	$_ZStL8__ioinit, %edi
	movq	%rsp, current_rsp
	leaq	specfuzz_rtl_frame, %rsp
	callq	specfuzz_rlbk_external_call
	movq	current_rsp, %rsp
	addw	$1, disable_speculation
	callq	_ZNSt8ios_base4InitC1Ev
	subw	$1, disable_speculation
	movl	$_ZNSt8ios_base4InitD1Ev, %edi
	movl	$_ZStL8__ioinit, %esi
	movl	$__dso_handle, %edx
	movq	%rsp, current_rsp
	leaq	specfuzz_rtl_frame, %rsp
	callq	specfuzz_rlbk_external_call
	movq	current_rsp, %rsp
	addw	$1, disable_speculation
	callq	__cxa_atexit
	subw	$1, disable_speculation
	movq	%rsp, current_rsp
	leaq	asan_rtl_frame, %rsp
	callq	__asan_after_dynamic_init
	movq	current_rsp, %rsp
	popq	%rax
	.cfi_def_cfa_offset 8
	movq	%rdi, tmp_gpr1
	movq	(%rsp), %rdi
	movq	%rsp, current_rsp
	leaq	specfuzz_rtl_frame, %rsp
	callq	specfuzz_check_code_pointer
	movq	current_rsp, %rsp
	movq	tmp_gpr1, %rdi
	retq
.Ltmp46:
.Lfunc_end3:
	.size	_GLOBAL__sub_I_utils.cc, .Lfunc_end3-_GLOBAL__sub_I_utils.cc
	.cfi_endproc
                                        # -- End function
	.text
	.p2align	4, 0x90         # -- Begin function asan.module_ctor
	.type	asan.module_ctor,@function
asan.module_ctor:                       # @asan.module_ctor
.Lfunc_begin4:
	.cfi_startproc
# %bb.0:
	pushq	%rax
	.cfi_def_cfa_offset 16
	callq	__asan_init
	callq	__asan_version_mismatch_check_v8
	movl	$__unnamed_1, %edi
	movl	$3, %esi
	callq	__asan_register_globals
	popq	%rax
	.cfi_def_cfa_offset 8
	retq
.Lfunc_end4:
	.size	asan.module_ctor, .Lfunc_end4-asan.module_ctor
	.cfi_endproc
                                        # -- End function
	.p2align	4, 0x90         # -- Begin function asan.module_dtor
	.type	asan.module_dtor,@function
asan.module_dtor:                       # @asan.module_dtor
.Lfunc_begin5:
	.cfi_startproc
# %bb.0:
	pushq	%rax
	.cfi_def_cfa_offset 16
	movl	$__unnamed_1, %edi
	movl	$3, %esi
	callq	__asan_unregister_globals
	popq	%rax
	.cfi_def_cfa_offset 8
	retq
.Lfunc_end5:
	.size	asan.module_dtor, .Lfunc_end5-asan.module_dtor
	.cfi_endproc
                                        # -- End function
	.type	_ZStL8__ioinit,@object  # @_ZStL8__ioinit
	.local	_ZStL8__ioinit
	.comm	_ZStL8__ioinit,64,32
	.hidden	__dso_handle
	.type	_ZZ23ExtendSpeculationWindowvE6buffer,@object # @_ZZ23ExtendSpeculationWindowvE6buffer
	.local	_ZZ23ExtendSpeculationWindowvE6buffer
	.comm	_ZZ23ExtendSpeculationWindowvE6buffer,15360,32
	.type	.str,@object            # @.str
	.section	.rodata,"a",@progbits
	.p2align	5
.str:
	.asciz	"CPU affinity setup failed."
	.zero	37
	.size	.str, 64

	.type	.L___asan_gen_,@object  # @___asan_gen_
	.section	.rodata.str1.1,"aMS",@progbits,1
.L___asan_gen_:
	.asciz	"1 32 128 6 set:64"
	.size	.L___asan_gen_, 18

	.type	.L___asan_gen_.1,@object # @___asan_gen_.1
	.section	.rodata,"a",@progbits
.L___asan_gen_.1:
	.asciz	"utils.cc"
	.size	.L___asan_gen_.1, 9

	.type	.L___asan_gen_.2,@object # @___asan_gen_.2
	.section	.rodata.str1.1,"aMS",@progbits,1
.L___asan_gen_.2:
	.asciz	"std::__ioinit"
	.size	.L___asan_gen_.2, 14

	.type	.L___asan_gen_.3,@object # @___asan_gen_.3
.L___asan_gen_.3:
	.asciz	"/usr/lib/gcc/x86_64-linux-gnu/9/../../../../include/c++/9/iostream"
	.size	.L___asan_gen_.3, 67

	.type	.L___asan_gen_.4,@object # @___asan_gen_.4
	.section	.rodata,"a",@progbits
	.p2align	3
.L___asan_gen_.4:
	.quad	.L___asan_gen_.3
	.long	74                      # 0x4a
	.long	25                      # 0x19
	.size	.L___asan_gen_.4, 16

	.type	.L___asan_gen_.5,@object # @___asan_gen_.5
	.section	.rodata.str1.1,"aMS",@progbits,1
.L___asan_gen_.5:
	.asciz	"buffer"
	.size	.L___asan_gen_.5, 7

	.type	.L___asan_gen_.6,@object # @___asan_gen_.6
.L___asan_gen_.6:
	.asciz	"utils.cc"
	.size	.L___asan_gen_.6, 9

	.type	.L___asan_gen_.7,@object # @___asan_gen_.7
	.section	.rodata,"a",@progbits
	.p2align	3
.L___asan_gen_.7:
	.quad	.L___asan_gen_.6
	.long	55                      # 0x37
	.long	15                      # 0xf
	.size	.L___asan_gen_.7, 16

	.type	.L___asan_gen_.8,@object # @___asan_gen_.8
	.section	.rodata.str1.1,"aMS",@progbits,1
.L___asan_gen_.8:
	.asciz	"<string literal>"
	.size	.L___asan_gen_.8, 17

	.type	.L___asan_gen_.9,@object # @___asan_gen_.9
.L___asan_gen_.9:
	.asciz	"utils.cc"
	.size	.L___asan_gen_.9, 9

	.type	.L___asan_gen_.10,@object # @___asan_gen_.10
	.section	.rodata,"a",@progbits
	.p2align	3
.L___asan_gen_.10:
	.quad	.L___asan_gen_.9
	.long	69                      # 0x45
	.long	18                      # 0x12
	.size	.L___asan_gen_.10, 16

	.type	__unnamed_1,@object     # @0
	.data
	.p2align	4
__unnamed_1:
	.quad	_ZStL8__ioinit
	.quad	1                       # 0x1
	.quad	64                      # 0x40
	.quad	.L___asan_gen_.2
	.quad	.L___asan_gen_.1
	.quad	1                       # 0x1
	.quad	.L___asan_gen_.4
	.quad	0                       # 0x0
	.quad	_ZZ23ExtendSpeculationWindowvE6buffer
	.quad	12288                   # 0x3000
	.quad	15360                   # 0x3c00
	.quad	.L___asan_gen_.5
	.quad	.L___asan_gen_.1
	.quad	0                       # 0x0
	.quad	.L___asan_gen_.7
	.quad	0                       # 0x0
	.quad	.str
	.quad	27                      # 0x1b
	.quad	64                      # 0x40
	.quad	.L___asan_gen_.8
	.quad	.L___asan_gen_.1
	.quad	0                       # 0x0
	.quad	.L___asan_gen_.10
	.quad	0                       # 0x0
	.size	__unnamed_1, 192

	.section	.init_array.1,"aw",@init_array
	.p2align	3
	.quad	asan.module_ctor
	.section	.init_array,"aw",@init_array
	.p2align	3
	.quad	_GLOBAL__sub_I_utils.cc
	.section	.fini_array.1,"aw",@fini_array
	.p2align	3
	.quad	asan.module_dtor
	.section	".note.GNU-stack","",@progbits